

Microchip Technology PIC LITE Macro Assembler V1.36 build -262312587 
                                                                                               Sat Sep 23 12:23:56 2017

Microchip Technology Omniscient Code Generator v1.36 (Free mode) build 201601150325
     1                           	processor	16F877A
     2                           	opt	pw 120
     3                           	opt	lm
     4                           	psect	stringtext,global,reloc=256,class=STRCODE,delta=2
     5                           	psect	cinit,global,class=CODE,merge=1,delta=2
     6                           	psect	bssBANK0,global,class=BANK0,space=1,delta=1
     7                           	psect	cstackCOMMON,global,class=COMMON,space=1,delta=1
     8                           	psect	cstackBANK0,global,class=BANK0,space=1,delta=1
     9                           	psect	maintext,global,class=CODE,split=1,delta=2
    10                           	psect	text1,local,class=CODE,merge=1,delta=2
    11                           	psect	text2,local,class=CODE,merge=1,delta=2
    12                           	psect	text3,local,class=CODE,merge=1,delta=2
    13                           	psect	text4,local,class=CODE,merge=1,delta=2
    14                           	psect	text5,local,class=CODE,merge=1,delta=2
    15                           	psect	text6,local,class=CODE,merge=1,delta=2
    16                           	psect	text7,local,class=CODE,merge=1,delta=2
    17                           	psect	text8,local,class=CODE,merge=1,delta=2
    18                           	psect	text9,local,class=CODE,merge=1,delta=2
    19                           	psect	text10,local,class=CODE,merge=1,delta=2
    20                           	psect	text11,local,class=CODE,merge=1,delta=2
    21                           	psect	text12,local,class=CODE,merge=1,delta=2
    22                           	psect	text13,local,class=CODE,merge=1,delta=2
    23                           	psect	text14,local,class=CODE,merge=1,delta=2
    24                           	psect	text15,local,class=CODE,merge=1,delta=2
    25                           	psect	text16,local,class=CODE,merge=1,delta=2
    26                           	psect	text17,local,class=CODE,merge=1,delta=2
    27                           	psect	text18,local,class=CODE,merge=1,delta=2
    28                           	psect	text19,local,class=CODE,merge=1,delta=2
    29                           	psect	text20,local,class=CODE,merge=1,delta=2
    30                           	psect	text21,local,class=CODE,merge=1,delta=2
    31                           	psect	text22,local,class=CODE,merge=1,delta=2
    32                           	psect	text23,local,class=CODE,merge=1,delta=2
    33                           	psect	text24,local,class=CODE,merge=1,delta=2
    34                           	psect	text25,local,class=CODE,merge=1,delta=2
    35                           	psect	text26,local,class=CODE,merge=1,delta=2
    36                           	dabs	1,0x7E,2
    37  0000                     	;# 
    38  0001                     	;# 
    39  0002                     	;# 
    40  0003                     	;# 
    41  0004                     	;# 
    42  0005                     	;# 
    43  0006                     	;# 
    44  0007                     	;# 
    45  0008                     	;# 
    46  0009                     	;# 
    47  000A                     	;# 
    48  000B                     	;# 
    49  000C                     	;# 
    50  000D                     	;# 
    51  000E                     	;# 
    52  000E                     	;# 
    53  000F                     	;# 
    54  0010                     	;# 
    55  0011                     	;# 
    56  0012                     	;# 
    57  0013                     	;# 
    58  0014                     	;# 
    59  0015                     	;# 
    60  0015                     	;# 
    61  0016                     	;# 
    62  0017                     	;# 
    63  0018                     	;# 
    64  0019                     	;# 
    65  001A                     	;# 
    66  001B                     	;# 
    67  001B                     	;# 
    68  001C                     	;# 
    69  001D                     	;# 
    70  001E                     	;# 
    71  001F                     	;# 
    72  0081                     	;# 
    73  0085                     	;# 
    74  0086                     	;# 
    75  0087                     	;# 
    76  0088                     	;# 
    77  0089                     	;# 
    78  008C                     	;# 
    79  008D                     	;# 
    80  008E                     	;# 
    81  0091                     	;# 
    82  0092                     	;# 
    83  0093                     	;# 
    84  0094                     	;# 
    85  0098                     	;# 
    86  0099                     	;# 
    87  009C                     	;# 
    88  009D                     	;# 
    89  009E                     	;# 
    90  009F                     	;# 
    91  010C                     	;# 
    92  010D                     	;# 
    93  010E                     	;# 
    94  010F                     	;# 
    95  018C                     	;# 
    96  018D                     	;# 
    97                           
    98                           	psect	stringtext
    99  0800                     __pstringtext:	
   100  0800                     stringtab:	
   101  0800                     __stringtab:	
   102                           
   103                           ;	String table - string pointers are 2 bytes each
   104  0800  1BFF               	btfsc	btemp+1,7
   105  0801  280A               	ljmp	stringcode
   106  0802  1383               	bcf	3,7
   107  0803  187F               	btfsc	btemp+1,0
   108  0804  1783               	bsf	3,7
   109  0805  0800               	movf	0,w
   110  0806  0A84               	incf	4,f
   111  0807  1903               	skipnz
   112  0808  0AFF               	incf	btemp+1,f
   113  0809  0008               	return
   114  080A                     stringcode:	
   115  080A  087F               	movf	btemp+1,w
   116  080B  397F               	andlw	127
   117  080C  008A               	movwf	10
   118  080D  0804               	movf	4,w
   119  080E  0A84               	incf	4,f
   120  080F  1903               	skipnz
   121  0810  0AFF               	incf	btemp+1,f
   122  0811  0082               	movwf	2
   123  0812                     __stringbase:	
   124  0812                     __end_of__stringtab:	
   125  0812                     _A_GlcdFontTable_U8:	
   126  0812  3400               	retlw	0
   127  0813  3400               	retlw	0
   128  0814  3400               	retlw	0
   129  0815  3400               	retlw	0
   130  0816  3400               	retlw	0
   131  0817  3400               	retlw	0
   132  0818  3400               	retlw	0
   133  0819  342F               	retlw	47
   134  081A  3400               	retlw	0
   135  081B  3400               	retlw	0
   136  081C  3400               	retlw	0
   137  081D  3407               	retlw	7
   138  081E  3400               	retlw	0
   139  081F  3407               	retlw	7
   140  0820  3400               	retlw	0
   141  0821  3414               	retlw	20
   142  0822  347F               	retlw	127
   143  0823  3414               	retlw	20
   144  0824  347F               	retlw	127
   145  0825  3414               	retlw	20
   146  0826  3424               	retlw	36
   147  0827  342A               	retlw	42
   148  0828  347F               	retlw	127
   149  0829  342A               	retlw	42
   150  082A  3412               	retlw	18
   151  082B  3423               	retlw	35
   152  082C  3413               	retlw	19
   153  082D  3408               	retlw	8
   154  082E  3464               	retlw	100
   155  082F  3462               	retlw	98
   156  0830  3436               	retlw	54
   157  0831  3449               	retlw	73
   158  0832  3455               	retlw	85
   159  0833  3422               	retlw	34
   160  0834  3450               	retlw	80
   161  0835  3400               	retlw	0
   162  0836  3405               	retlw	5
   163  0837  3403               	retlw	3
   164  0838  3400               	retlw	0
   165  0839  3400               	retlw	0
   166  083A  3400               	retlw	0
   167  083B  341C               	retlw	28
   168  083C  3422               	retlw	34
   169  083D  3441               	retlw	65
   170  083E  3400               	retlw	0
   171  083F  3400               	retlw	0
   172  0840  3441               	retlw	65
   173  0841  3422               	retlw	34
   174  0842  341C               	retlw	28
   175  0843  3400               	retlw	0
   176  0844  3414               	retlw	20
   177  0845  3408               	retlw	8
   178  0846  343E               	retlw	62
   179  0847  3408               	retlw	8
   180  0848  3414               	retlw	20
   181  0849  3408               	retlw	8
   182  084A  3408               	retlw	8
   183  084B  343E               	retlw	62
   184  084C  3408               	retlw	8
   185  084D  3408               	retlw	8
   186  084E  3400               	retlw	0
   187  084F  3400               	retlw	0
   188  0850  34A0               	retlw	160
   189  0851  3460               	retlw	96
   190  0852  3400               	retlw	0
   191  0853  3408               	retlw	8
   192  0854  3408               	retlw	8
   193  0855  3408               	retlw	8
   194  0856  3408               	retlw	8
   195  0857  3408               	retlw	8
   196  0858  3400               	retlw	0
   197  0859  3460               	retlw	96
   198  085A  3460               	retlw	96
   199  085B  3400               	retlw	0
   200  085C  3400               	retlw	0
   201  085D  3420               	retlw	32
   202  085E  3410               	retlw	16
   203  085F  3408               	retlw	8
   204  0860  3404               	retlw	4
   205  0861  3402               	retlw	2
   206  0862  343E               	retlw	62
   207  0863  3451               	retlw	81
   208  0864  3449               	retlw	73
   209  0865  3445               	retlw	69
   210  0866  343E               	retlw	62
   211  0867  3400               	retlw	0
   212  0868  3442               	retlw	66
   213  0869  347F               	retlw	127
   214  086A  3440               	retlw	64
   215  086B  3400               	retlw	0
   216  086C  3442               	retlw	66
   217  086D  3461               	retlw	97
   218  086E  3451               	retlw	81
   219  086F  3449               	retlw	73
   220  0870  3446               	retlw	70
   221  0871  3421               	retlw	33
   222  0872  3441               	retlw	65
   223  0873  3445               	retlw	69
   224  0874  344B               	retlw	75
   225  0875  3431               	retlw	49
   226  0876  3418               	retlw	24
   227  0877  3414               	retlw	20
   228  0878  3412               	retlw	18
   229  0879  347F               	retlw	127
   230  087A  3410               	retlw	16
   231  087B  3427               	retlw	39
   232  087C  3445               	retlw	69
   233  087D  3445               	retlw	69
   234  087E  3445               	retlw	69
   235  087F  3439               	retlw	57
   236  0880  343C               	retlw	60
   237  0881  344A               	retlw	74
   238  0882  3449               	retlw	73
   239  0883  3449               	retlw	73
   240  0884  3430               	retlw	48
   241  0885  3401               	retlw	1
   242  0886  3471               	retlw	113
   243  0887  3409               	retlw	9
   244  0888  3405               	retlw	5
   245  0889  3403               	retlw	3
   246  088A  3436               	retlw	54
   247  088B  3449               	retlw	73
   248  088C  3449               	retlw	73
   249  088D  3449               	retlw	73
   250  088E  3436               	retlw	54
   251  088F  3406               	retlw	6
   252  0890  3449               	retlw	73
   253  0891  3449               	retlw	73
   254  0892  3429               	retlw	41
   255  0893  341E               	retlw	30
   256  0894  3400               	retlw	0
   257  0895  3436               	retlw	54
   258  0896  3436               	retlw	54
   259  0897  3400               	retlw	0
   260  0898  3400               	retlw	0
   261  0899  3400               	retlw	0
   262  089A  3456               	retlw	86
   263  089B  3436               	retlw	54
   264  089C  3400               	retlw	0
   265  089D  3400               	retlw	0
   266  089E  3408               	retlw	8
   267  089F  3414               	retlw	20
   268  08A0  3422               	retlw	34
   269  08A1  3441               	retlw	65
   270  08A2  3400               	retlw	0
   271  08A3  3414               	retlw	20
   272  08A4  3414               	retlw	20
   273  08A5  3414               	retlw	20
   274  08A6  3414               	retlw	20
   275  08A7  3414               	retlw	20
   276  08A8  3400               	retlw	0
   277  08A9  3441               	retlw	65
   278  08AA  3422               	retlw	34
   279  08AB  3414               	retlw	20
   280  08AC  3408               	retlw	8
   281  08AD  3402               	retlw	2
   282  08AE  3401               	retlw	1
   283  08AF  3451               	retlw	81
   284  08B0  3409               	retlw	9
   285  08B1  3406               	retlw	6
   286  08B2  3432               	retlw	50
   287  08B3  3449               	retlw	73
   288  08B4  3459               	retlw	89
   289  08B5  3451               	retlw	81
   290  08B6  343E               	retlw	62
   291  08B7  347C               	retlw	124
   292  08B8  3412               	retlw	18
   293  08B9  3411               	retlw	17
   294  08BA  3412               	retlw	18
   295  08BB  347C               	retlw	124
   296  08BC  347F               	retlw	127
   297  08BD  3449               	retlw	73
   298  08BE  3449               	retlw	73
   299  08BF  3449               	retlw	73
   300  08C0  3436               	retlw	54
   301  08C1  343E               	retlw	62
   302  08C2  3441               	retlw	65
   303  08C3  3441               	retlw	65
   304  08C4  3441               	retlw	65
   305  08C5  3422               	retlw	34
   306  08C6  347F               	retlw	127
   307  08C7  3441               	retlw	65
   308  08C8  3441               	retlw	65
   309  08C9  3422               	retlw	34
   310  08CA  341C               	retlw	28
   311  08CB  347F               	retlw	127
   312  08CC  3449               	retlw	73
   313  08CD  3449               	retlw	73
   314  08CE  3449               	retlw	73
   315  08CF  3441               	retlw	65
   316  08D0  347F               	retlw	127
   317  08D1  3409               	retlw	9
   318  08D2  3409               	retlw	9
   319  08D3  3409               	retlw	9
   320  08D4  3401               	retlw	1
   321  08D5  343E               	retlw	62
   322  08D6  3441               	retlw	65
   323  08D7  3449               	retlw	73
   324  08D8  3449               	retlw	73
   325  08D9  347A               	retlw	122
   326  08DA  347F               	retlw	127
   327  08DB  3408               	retlw	8
   328  08DC  3408               	retlw	8
   329  08DD  3408               	retlw	8
   330  08DE  347F               	retlw	127
   331  08DF  3400               	retlw	0
   332  08E0  3441               	retlw	65
   333  08E1  347F               	retlw	127
   334  08E2  3441               	retlw	65
   335  08E3  3400               	retlw	0
   336  08E4  3420               	retlw	32
   337  08E5  3440               	retlw	64
   338  08E6  3441               	retlw	65
   339  08E7  343F               	retlw	63
   340  08E8  3401               	retlw	1
   341  08E9  347F               	retlw	127
   342  08EA  3408               	retlw	8
   343  08EB  3414               	retlw	20
   344  08EC  3422               	retlw	34
   345  08ED  3441               	retlw	65
   346  08EE  347F               	retlw	127
   347  08EF  3440               	retlw	64
   348  08F0  3440               	retlw	64
   349  08F1  3440               	retlw	64
   350  08F2  3440               	retlw	64
   351  08F3  347F               	retlw	127
   352  08F4  3402               	retlw	2
   353  08F5  340C               	retlw	12
   354  08F6  3402               	retlw	2
   355  08F7  347F               	retlw	127
   356  08F8  347F               	retlw	127
   357  08F9  3404               	retlw	4
   358  08FA  3408               	retlw	8
   359  08FB  3410               	retlw	16
   360  08FC  347F               	retlw	127
   361  08FD  343E               	retlw	62
   362  08FE  3441               	retlw	65
   363  08FF  3441               	retlw	65
   364  0900  3441               	retlw	65
   365  0901  343E               	retlw	62
   366  0902  347F               	retlw	127
   367  0903  3409               	retlw	9
   368  0904  3409               	retlw	9
   369  0905  3409               	retlw	9
   370  0906  3406               	retlw	6
   371  0907  343E               	retlw	62
   372  0908  3441               	retlw	65
   373  0909  3451               	retlw	81
   374  090A  3421               	retlw	33
   375  090B  345E               	retlw	94
   376  090C  347F               	retlw	127
   377  090D  3409               	retlw	9
   378  090E  3419               	retlw	25
   379  090F  3429               	retlw	41
   380  0910  3446               	retlw	70
   381  0911  3446               	retlw	70
   382  0912  3449               	retlw	73
   383  0913  3449               	retlw	73
   384  0914  3449               	retlw	73
   385  0915  3431               	retlw	49
   386  0916  3401               	retlw	1
   387  0917  3401               	retlw	1
   388  0918  347F               	retlw	127
   389  0919  3401               	retlw	1
   390  091A  3401               	retlw	1
   391  091B  343F               	retlw	63
   392  091C  3440               	retlw	64
   393  091D  3440               	retlw	64
   394  091E  3440               	retlw	64
   395  091F  343F               	retlw	63
   396  0920  341F               	retlw	31
   397  0921  3420               	retlw	32
   398  0922  3440               	retlw	64
   399  0923  3420               	retlw	32
   400  0924  341F               	retlw	31
   401  0925  343F               	retlw	63
   402  0926  3440               	retlw	64
   403  0927  3438               	retlw	56
   404  0928  3440               	retlw	64
   405  0929  343F               	retlw	63
   406  092A  3463               	retlw	99
   407  092B  3414               	retlw	20
   408  092C  3408               	retlw	8
   409  092D  3414               	retlw	20
   410  092E  3463               	retlw	99
   411  092F  3407               	retlw	7
   412  0930  3408               	retlw	8
   413  0931  3470               	retlw	112
   414  0932  3408               	retlw	8
   415  0933  3407               	retlw	7
   416  0934  3461               	retlw	97
   417  0935  3451               	retlw	81
   418  0936  3449               	retlw	73
   419  0937  3445               	retlw	69
   420  0938  3443               	retlw	67
   421  0939  3400               	retlw	0
   422  093A  347F               	retlw	127
   423  093B  3441               	retlw	65
   424  093C  3441               	retlw	65
   425  093D  3400               	retlw	0
   426  093E  3455               	retlw	85
   427  093F  34AA               	retlw	170
   428  0940  3455               	retlw	85
   429  0941  34AA               	retlw	170
   430  0942  3455               	retlw	85
   431  0943  3400               	retlw	0
   432  0944  3441               	retlw	65
   433  0945  3441               	retlw	65
   434  0946  347F               	retlw	127
   435  0947  3400               	retlw	0
   436  0948  3404               	retlw	4
   437  0949  3402               	retlw	2
   438  094A  3401               	retlw	1
   439  094B  3402               	retlw	2
   440  094C  3404               	retlw	4
   441  094D  3440               	retlw	64
   442  094E  3440               	retlw	64
   443  094F  3440               	retlw	64
   444  0950  3440               	retlw	64
   445  0951  3440               	retlw	64
   446  0952  3400               	retlw	0
   447  0953  3403               	retlw	3
   448  0954  3405               	retlw	5
   449  0955  3400               	retlw	0
   450  0956  3400               	retlw	0
   451  0957  3420               	retlw	32
   452  0958  3454               	retlw	84
   453  0959  3454               	retlw	84
   454  095A  3454               	retlw	84
   455  095B  3478               	retlw	120
   456  095C  347F               	retlw	127
   457  095D  3448               	retlw	72
   458  095E  3444               	retlw	68
   459  095F  3444               	retlw	68
   460  0960  3438               	retlw	56
   461  0961  3438               	retlw	56
   462  0962  3444               	retlw	68
   463  0963  3444               	retlw	68
   464  0964  3444               	retlw	68
   465  0965  3420               	retlw	32
   466  0966  3438               	retlw	56
   467  0967  3444               	retlw	68
   468  0968  3444               	retlw	68
   469  0969  3448               	retlw	72
   470  096A  347F               	retlw	127
   471  096B  3438               	retlw	56
   472  096C  3454               	retlw	84
   473  096D  3454               	retlw	84
   474  096E  3454               	retlw	84
   475  096F  3418               	retlw	24
   476  0970  3408               	retlw	8
   477  0971  347E               	retlw	126
   478  0972  3409               	retlw	9
   479  0973  3401               	retlw	1
   480  0974  3402               	retlw	2
   481  0975  3418               	retlw	24
   482  0976  34A4               	retlw	164
   483  0977  34A4               	retlw	164
   484  0978  34A4               	retlw	164
   485  0979  347C               	retlw	124
   486  097A  347F               	retlw	127
   487  097B  3408               	retlw	8
   488  097C  3404               	retlw	4
   489  097D  3404               	retlw	4
   490  097E  3478               	retlw	120
   491  097F  3400               	retlw	0
   492  0980  3444               	retlw	68
   493  0981  347D               	retlw	125
   494  0982  3440               	retlw	64
   495  0983  3400               	retlw	0
   496  0984  3440               	retlw	64
   497  0985  3480               	retlw	128
   498  0986  3484               	retlw	132
   499  0987  347D               	retlw	125
   500  0988  3400               	retlw	0
   501  0989  347F               	retlw	127
   502  098A  3410               	retlw	16
   503  098B  3428               	retlw	40
   504  098C  3444               	retlw	68
   505  098D  3400               	retlw	0
   506  098E  3400               	retlw	0
   507  098F  3441               	retlw	65
   508  0990  347F               	retlw	127
   509  0991  3440               	retlw	64
   510  0992  3400               	retlw	0
   511  0993  347C               	retlw	124
   512  0994  3404               	retlw	4
   513  0995  3418               	retlw	24
   514  0996  3404               	retlw	4
   515  0997  3478               	retlw	120
   516  0998  347C               	retlw	124
   517  0999  3408               	retlw	8
   518  099A  3404               	retlw	4
   519  099B  3404               	retlw	4
   520  099C  3478               	retlw	120
   521  099D  3438               	retlw	56
   522  099E  3444               	retlw	68
   523  099F  3444               	retlw	68
   524  09A0  3444               	retlw	68
   525  09A1  3438               	retlw	56
   526  09A2  34FC               	retlw	252
   527  09A3  3424               	retlw	36
   528  09A4  3424               	retlw	36
   529  09A5  3424               	retlw	36
   530  09A6  3418               	retlw	24
   531  09A7  3418               	retlw	24
   532  09A8  3424               	retlw	36
   533  09A9  3424               	retlw	36
   534  09AA  3418               	retlw	24
   535  09AB  34FC               	retlw	252
   536  09AC  347C               	retlw	124
   537  09AD  3408               	retlw	8
   538  09AE  3404               	retlw	4
   539  09AF  3404               	retlw	4
   540  09B0  3408               	retlw	8
   541  09B1  3448               	retlw	72
   542  09B2  3454               	retlw	84
   543  09B3  3454               	retlw	84
   544  09B4  3454               	retlw	84
   545  09B5  3420               	retlw	32
   546  09B6  3404               	retlw	4
   547  09B7  343F               	retlw	63
   548  09B8  3444               	retlw	68
   549  09B9  3440               	retlw	64
   550  09BA  3420               	retlw	32
   551  09BB  343C               	retlw	60
   552  09BC  3440               	retlw	64
   553  09BD  3440               	retlw	64
   554  09BE  3420               	retlw	32
   555  09BF  347C               	retlw	124
   556  09C0  341C               	retlw	28
   557  09C1  3420               	retlw	32
   558  09C2  3440               	retlw	64
   559  09C3  3420               	retlw	32
   560  09C4  341C               	retlw	28
   561  09C5  343C               	retlw	60
   562  09C6  3440               	retlw	64
   563  09C7  3430               	retlw	48
   564  09C8  3440               	retlw	64
   565  09C9  343C               	retlw	60
   566  09CA  3444               	retlw	68
   567  09CB  3428               	retlw	40
   568  09CC  3410               	retlw	16
   569  09CD  3428               	retlw	40
   570  09CE  3444               	retlw	68
   571  09CF  341C               	retlw	28
   572  09D0  34A0               	retlw	160
   573  09D1  34A0               	retlw	160
   574  09D2  34A0               	retlw	160
   575  09D3  347C               	retlw	124
   576  09D4  3444               	retlw	68
   577  09D5  3464               	retlw	100
   578  09D6  3454               	retlw	84
   579  09D7  344C               	retlw	76
   580  09D8  3444               	retlw	68
   581  09D9  3400               	retlw	0
   582  09DA  3410               	retlw	16
   583  09DB  347C               	retlw	124
   584  09DC  3482               	retlw	130
   585  09DD  3400               	retlw	0
   586  09DE  3400               	retlw	0
   587  09DF  3400               	retlw	0
   588  09E0  34FF               	retlw	255
   589  09E1  3400               	retlw	0
   590  09E2  3400               	retlw	0
   591  09E3  3400               	retlw	0
   592  09E4  3482               	retlw	130
   593  09E5  347C               	retlw	124
   594  09E6  3410               	retlw	16
   595  09E7  3400               	retlw	0
   596  09E8  3400               	retlw	0
   597  09E9  3406               	retlw	6
   598  09EA  3409               	retlw	9
   599  09EB  3409               	retlw	9
   600  09EC  3406               	retlw	6
   601  09ED                     __end_of_A_GlcdFontTable_U8:	
   602  09ED                     _LogoBitMap:	
   603  09ED  3400               	retlw	0
   604  09EE  3400               	retlw	0
   605  09EF  3400               	retlw	0
   606  09F0  3400               	retlw	0
   607  09F1  3400               	retlw	0
   608  09F2  3400               	retlw	0
   609  09F3  3400               	retlw	0
   610  09F4  3400               	retlw	0
   611  09F5  3400               	retlw	0
   612  09F6  3400               	retlw	0
   613  09F7  3400               	retlw	0
   614  09F8  3400               	retlw	0
   615  09F9  3400               	retlw	0
   616  09FA  3400               	retlw	0
   617  09FB  3400               	retlw	0
   618  09FC  3400               	retlw	0
   619  09FD  3400               	retlw	0
   620  09FE  3400               	retlw	0
   621  09FF  3400               	retlw	0
   622  0A00  3400               	retlw	0
   623  0A01  3400               	retlw	0
   624  0A02  3400               	retlw	0
   625  0A03  3400               	retlw	0
   626  0A04  3480               	retlw	128
   627  0A05  34C0               	retlw	192
   628  0A06  34E0               	retlw	224
   629  0A07  34E0               	retlw	224
   630  0A08  34F0               	retlw	240
   631  0A09  34F0               	retlw	240
   632  0A0A  34F0               	retlw	240
   633  0A0B  34F8               	retlw	248
   634  0A0C  34F8               	retlw	248
   635  0A0D  34FC               	retlw	252
   636  0A0E  34FC               	retlw	252
   637  0A0F  34FC               	retlw	252
   638  0A10  34FC               	retlw	252
   639  0A11  34FE               	retlw	254
   640  0A12  34FE               	retlw	254
   641  0A13  34FE               	retlw	254
   642  0A14  34FE               	retlw	254
   643  0A15  34FE               	retlw	254
   644  0A16  34FE               	retlw	254
   645  0A17  34FE               	retlw	254
   646  0A18  34FE               	retlw	254
   647  0A19  34FE               	retlw	254
   648  0A1A  34FE               	retlw	254
   649  0A1B  347E               	retlw	126
   650  0A1C  347E               	retlw	126
   651  0A1D  347E               	retlw	126
   652  0A1E  347C               	retlw	124
   653  0A1F  34FC               	retlw	252
   654  0A20  34FC               	retlw	252
   655  0A21  34FC               	retlw	252
   656  0A22  34F8               	retlw	248
   657  0A23  34F8               	retlw	248
   658  0A24  34F0               	retlw	240
   659  0A25  34F0               	retlw	240
   660  0A26  34F0               	retlw	240
   661  0A27  34E0               	retlw	224
   662  0A28  34C0               	retlw	192
   663  0A29  34C0               	retlw	192
   664  0A2A  3480               	retlw	128
   665  0A2B  3400               	retlw	0
   666  0A2C  3400               	retlw	0
   667  0A2D  3480               	retlw	128
   668  0A2E  34C0               	retlw	192
   669  0A2F  34E0               	retlw	224
   670  0A30  34E0               	retlw	224
   671  0A31  34F0               	retlw	240
   672  0A32  34F0               	retlw	240
   673  0A33  34F8               	retlw	248
   674  0A34  34F8               	retlw	248
   675  0A35  34FC               	retlw	252
   676  0A36  34FC               	retlw	252
   677  0A37  34FC               	retlw	252
   678  0A38  34FC               	retlw	252
   679  0A39  34FE               	retlw	254
   680  0A3A  34FE               	retlw	254
   681  0A3B  34FE               	retlw	254
   682  0A3C  34FE               	retlw	254
   683  0A3D  34FE               	retlw	254
   684  0A3E  34FE               	retlw	254
   685  0A3F  34FE               	retlw	254
   686  0A40  34FE               	retlw	254
   687  0A41  34FE               	retlw	254
   688  0A42  34FE               	retlw	254
   689  0A43  34FE               	retlw	254
   690  0A44  34FE               	retlw	254
   691  0A45  34FE               	retlw	254
   692  0A46  34FE               	retlw	254
   693  0A47  34FE               	retlw	254
   694  0A48  34FE               	retlw	254
   695  0A49  34FC               	retlw	252
   696  0A4A  34FC               	retlw	252
   697  0A4B  34FC               	retlw	252
   698  0A4C  34F8               	retlw	248
   699  0A4D  34F8               	retlw	248
   700  0A4E  34F8               	retlw	248
   701  0A4F  34F0               	retlw	240
   702  0A50  34F0               	retlw	240
   703  0A51  34E0               	retlw	224
   704  0A52  34E0               	retlw	224
   705  0A53  34C0               	retlw	192
   706  0A54  3480               	retlw	128
   707  0A55  3400               	retlw	0
   708  0A56  3400               	retlw	0
   709  0A57  3400               	retlw	0
   710  0A58  3400               	retlw	0
   711  0A59  3400               	retlw	0
   712  0A5A  3400               	retlw	0
   713  0A5B  3400               	retlw	0
   714  0A5C  3400               	retlw	0
   715  0A5D  3400               	retlw	0
   716  0A5E  3400               	retlw	0
   717  0A5F  3400               	retlw	0
   718  0A60  3400               	retlw	0
   719  0A61  3400               	retlw	0
   720  0A62  3400               	retlw	0
   721  0A63  3400               	retlw	0
   722  0A64  3400               	retlw	0
   723  0A65  3400               	retlw	0
   724  0A66  3400               	retlw	0
   725  0A67  3400               	retlw	0
   726  0A68  3400               	retlw	0
   727  0A69  3400               	retlw	0
   728  0A6A  3400               	retlw	0
   729  0A6B  3400               	retlw	0
   730  0A6C  3400               	retlw	0
   731  0A6D  3400               	retlw	0
   732  0A6E  3400               	retlw	0
   733  0A6F  3400               	retlw	0
   734  0A70  3400               	retlw	0
   735  0A71  3400               	retlw	0
   736  0A72  3400               	retlw	0
   737  0A73  3400               	retlw	0
   738  0A74  3400               	retlw	0
   739  0A75  3400               	retlw	0
   740  0A76  3400               	retlw	0
   741  0A77  3400               	retlw	0
   742  0A78  3400               	retlw	0
   743  0A79  3400               	retlw	0
   744  0A7A  3400               	retlw	0
   745  0A7B  3400               	retlw	0
   746  0A7C  3400               	retlw	0
   747  0A7D  34C0               	retlw	192
   748  0A7E  34E0               	retlw	224
   749  0A7F  34F0               	retlw	240
   750  0A80  34F8               	retlw	248
   751  0A81  34FE               	retlw	254
   752  0A82  34FF               	retlw	255
   753  0A83  34FF               	retlw	255
   754  0A84  34FF               	retlw	255
   755  0A85  34FF               	retlw	255
   756  0A86  34FF               	retlw	255
   757  0A87  34FF               	retlw	255
   758  0A88  34FF               	retlw	255
   759  0A89  34FF               	retlw	255
   760  0A8A  34FF               	retlw	255
   761  0A8B  34FF               	retlw	255
   762  0A8C  34FF               	retlw	255
   763  0A8D  34FF               	retlw	255
   764  0A8E  34FF               	retlw	255
   765  0A8F  343F               	retlw	63
   766  0A90  341F               	retlw	31
   767  0A91  340F               	retlw	15
   768  0A92  3407               	retlw	7
   769  0A93  3403               	retlw	3
   770  0A94  3481               	retlw	129
   771  0A95  34C1               	retlw	193
   772  0A96  34E0               	retlw	224
   773  0A97  34E0               	retlw	224
   774  0A98  34F0               	retlw	240
   775  0A99  34F0               	retlw	240
   776  0A9A  34F0               	retlw	240
   777  0A9B  34F8               	retlw	248
   778  0A9C  34F8               	retlw	248
   779  0A9D  34F8               	retlw	248
   780  0A9E  34F0               	retlw	240
   781  0A9F  34F0               	retlw	240
   782  0AA0  34F0               	retlw	240
   783  0AA1  34F0               	retlw	240
   784  0AA2  34E0               	retlw	224
   785  0AA3  34E1               	retlw	225
   786  0AA4  34C1               	retlw	193
   787  0AA5  3483               	retlw	131
   788  0AA6  3407               	retlw	7
   789  0AA7  3407               	retlw	7
   790  0AA8  340F               	retlw	15
   791  0AA9  343F               	retlw	63
   792  0AAA  347F               	retlw	127
   793  0AAB  34FF               	retlw	255
   794  0AAC  34FF               	retlw	255
   795  0AAD  34FF               	retlw	255
   796  0AAE  34FF               	retlw	255
   797  0AAF  34FF               	retlw	255
   798  0AB0  34FF               	retlw	255
   799  0AB1  34FF               	retlw	255
   800  0AB2  34FF               	retlw	255
   801  0AB3  34FF               	retlw	255
   802  0AB4  34FF               	retlw	255
   803  0AB5  34FF               	retlw	255
   804  0AB6  3401               	retlw	1
   805  0AB7  3401               	retlw	1
   806  0AB8  3401               	retlw	1
   807  0AB9  3401               	retlw	1
   808  0ABA  3481               	retlw	129
   809  0ABB  34FF               	retlw	255
   810  0ABC  34FF               	retlw	255
   811  0ABD  3401               	retlw	1
   812  0ABE  3401               	retlw	1
   813  0ABF  3401               	retlw	1
   814  0AC0  3401               	retlw	1
   815  0AC1  3483               	retlw	131
   816  0AC2  34FF               	retlw	255
   817  0AC3  34FF               	retlw	255
   818  0AC4  3401               	retlw	1
   819  0AC5  3401               	retlw	1
   820  0AC6  3401               	retlw	1
   821  0AC7  3401               	retlw	1
   822  0AC8  3483               	retlw	131
   823  0AC9  34FF               	retlw	255
   824  0ACA  34FF               	retlw	255
   825  0ACB  3401               	retlw	1
   826  0ACC  3401               	retlw	1
   827  0ACD  3401               	retlw	1
   828  0ACE  3401               	retlw	1
   829  0ACF  34FF               	retlw	255
   830  0AD0  34FF               	retlw	255
   831  0AD1  34FF               	retlw	255
   832  0AD2  34FF               	retlw	255
   833  0AD3  34FF               	retlw	255
   834  0AD4  34FF               	retlw	255
   835  0AD5  34FF               	retlw	255
   836  0AD6  34FE               	retlw	254
   837  0AD7  34FC               	retlw	252
   838  0AD8  34F8               	retlw	248
   839  0AD9  34F0               	retlw	240
   840  0ADA  34E0               	retlw	224
   841  0ADB  3480               	retlw	128
   842  0ADC  3400               	retlw	0
   843  0ADD  3400               	retlw	0
   844  0ADE  3400               	retlw	0
   845  0ADF  3400               	retlw	0
   846  0AE0  3400               	retlw	0
   847  0AE1  3400               	retlw	0
   848  0AE2  3400               	retlw	0
   849  0AE3  3400               	retlw	0
   850  0AE4  3400               	retlw	0
   851  0AE5  3400               	retlw	0
   852  0AE6  3400               	retlw	0
   853  0AE7  3400               	retlw	0
   854  0AE8  3400               	retlw	0
   855  0AE9  3400               	retlw	0
   856  0AEA  3400               	retlw	0
   857  0AEB  3400               	retlw	0
   858  0AEC  3400               	retlw	0
   859  0AED  3400               	retlw	0
   860  0AEE  3400               	retlw	0
   861  0AEF  3400               	retlw	0
   862  0AF0  3400               	retlw	0
   863  0AF1  3400               	retlw	0
   864  0AF2  3400               	retlw	0
   865  0AF3  3400               	retlw	0
   866  0AF4  3400               	retlw	0
   867  0AF5  3400               	retlw	0
   868  0AF6  3400               	retlw	0
   869  0AF7  3400               	retlw	0
   870  0AF8  3400               	retlw	0
   871  0AF9  3400               	retlw	0
   872  0AFA  34E0               	retlw	224
   873  0AFB  34FC               	retlw	252
   874  0AFC  34FF               	retlw	255
   875  0AFD  34FF               	retlw	255
   876  0AFE  34FF               	retlw	255
   877  0AFF  34FF               	retlw	255
   878  0B00  34FF               	retlw	255
   879  0B01  34FF               	retlw	255
   880  0B02  34FF               	retlw	255
   881  0B03  34FF               	retlw	255
   882  0B04  34FF               	retlw	255
   883  0B05  34FF               	retlw	255
   884  0B06  34FF               	retlw	255
   885  0B07  34FF               	retlw	255
   886  0B08  34FF               	retlw	255
   887  0B09  34FF               	retlw	255
   888  0B0A  34FF               	retlw	255
   889  0B0B  34FF               	retlw	255
   890  0B0C  34FF               	retlw	255
   891  0B0D  3487               	retlw	135
   892  0B0E  3400               	retlw	0
   893  0B0F  3400               	retlw	0
   894  0B10  3400               	retlw	0
   895  0B11  3400               	retlw	0
   896  0B12  34FC               	retlw	252
   897  0B13  34FF               	retlw	255
   898  0B14  34FF               	retlw	255
   899  0B15  34FF               	retlw	255
   900  0B16  34FF               	retlw	255
   901  0B17  34FF               	retlw	255
   902  0B18  34FF               	retlw	255
   903  0B19  34FF               	retlw	255
   904  0B1A  34FF               	retlw	255
   905  0B1B  34FF               	retlw	255
   906  0B1C  34FF               	retlw	255
   907  0B1D  34FF               	retlw	255
   908  0B1E  34FF               	retlw	255
   909  0B1F  34FF               	retlw	255
   910  0B20  34FF               	retlw	255
   911  0B21  34FF               	retlw	255
   912  0B22  34FF               	retlw	255
   913  0B23  34FF               	retlw	255
   914  0B24  34FF               	retlw	255
   915  0B25  34FF               	retlw	255
   916  0B26  34FE               	retlw	254
   917  0B27  3438               	retlw	56
   918  0B28  3400               	retlw	0
   919  0B29  3400               	retlw	0
   920  0B2A  3400               	retlw	0
   921  0B2B  3403               	retlw	3
   922  0B2C  34FF               	retlw	255
   923  0B2D  34FF               	retlw	255
   924  0B2E  3471               	retlw	113
   925  0B2F  3471               	retlw	113
   926  0B30  3471               	retlw	113
   927  0B31  3471               	retlw	113
   928  0B32  3471               	retlw	113
   929  0B33  3471               	retlw	113
   930  0B34  3471               	retlw	113
   931  0B35  34FF               	retlw	255
   932  0B36  34F9               	retlw	249
   933  0B37  34F9               	retlw	249
   934  0B38  34F9               	retlw	249
   935  0B39  34FF               	retlw	255
   936  0B3A  34FF               	retlw	255
   937  0B3B  34FF               	retlw	255
   938  0B3C  34FF               	retlw	255
   939  0B3D  34FF               	retlw	255
   940  0B3E  34FF               	retlw	255
   941  0B3F  34FF               	retlw	255
   942  0B40  34FF               	retlw	255
   943  0B41  34FF               	retlw	255
   944  0B42  34FF               	retlw	255
   945  0B43  34FF               	retlw	255
   946  0B44  34FF               	retlw	255
   947  0B45  34FF               	retlw	255
   948  0B46  34FF               	retlw	255
   949  0B47  34FF               	retlw	255
   950  0B48  34FF               	retlw	255
   951  0B49  34FF               	retlw	255
   952  0B4A  34FF               	retlw	255
   953  0B4B  34FF               	retlw	255
   954  0B4C  34FF               	retlw	255
   955  0B4D  34FF               	retlw	255
   956  0B4E  34FF               	retlw	255
   957  0B4F  34FF               	retlw	255
   958  0B50  3471               	retlw	113
   959  0B51  3471               	retlw	113
   960  0B52  3471               	retlw	113
   961  0B53  3471               	retlw	113
   962  0B54  3471               	retlw	113
   963  0B55  3471               	retlw	113
   964  0B56  3471               	retlw	113
   965  0B57  34FF               	retlw	255
   966  0B58  34FF               	retlw	255
   967  0B59  34FF               	retlw	255
   968  0B5A  34FF               	retlw	255
   969  0B5B  34FF               	retlw	255
   970  0B5C  34FF               	retlw	255
   971  0B5D  34F8               	retlw	248
   972  0B5E  34C0               	retlw	192
   973  0B5F  3400               	retlw	0
   974  0B60  3400               	retlw	0
   975  0B61  3400               	retlw	0
   976  0B62  3400               	retlw	0
   977  0B63  3400               	retlw	0
   978  0B64  3400               	retlw	0
   979  0B65  3400               	retlw	0
   980  0B66  3400               	retlw	0
   981  0B67  3400               	retlw	0
   982  0B68  3400               	retlw	0
   983  0B69  3400               	retlw	0
   984  0B6A  3400               	retlw	0
   985  0B6B  3400               	retlw	0
   986  0B6C  3400               	retlw	0
   987  0B6D  3400               	retlw	0
   988  0B6E  3400               	retlw	0
   989  0B6F  3400               	retlw	0
   990  0B70  3400               	retlw	0
   991  0B71  3400               	retlw	0
   992  0B72  3400               	retlw	0
   993  0B73  3400               	retlw	0
   994  0B74  3400               	retlw	0
   995  0B75  3400               	retlw	0
   996  0B76  3400               	retlw	0
   997  0B77  3400               	retlw	0
   998  0B78  3400               	retlw	0
   999  0B79  347C               	retlw	124
  1000  0B7A  34FF               	retlw	255
  1001  0B7B  34FF               	retlw	255
  1002  0B7C  34FF               	retlw	255
  1003  0B7D  34FF               	retlw	255
  1004  0B7E  34FF               	retlw	255
  1005  0B7F  34FF               	retlw	255
  1006  0B80  34FF               	retlw	255
  1007  0B81  34FF               	retlw	255
  1008  0B82  34FF               	retlw	255
  1009  0B83  34FF               	retlw	255
  1010  0B84  34FF               	retlw	255
  1011  0B85  34FF               	retlw	255
  1012  0B86  34FF               	retlw	255
  1013  0B87  34FF               	retlw	255
  1014  0B88  34FF               	retlw	255
  1015  0B89  34FF               	retlw	255
  1016  0B8A  34FF               	retlw	255
  1017  0B8B  34FF               	retlw	255
  1018  0B8C  34FF               	retlw	255
  1019  0B8D  34FF               	retlw	255
  1020  0B8E  34FC               	retlw	252
  1021  0B8F  3470               	retlw	112
  1022  0B90  3460               	retlw	96
  1023  0B91  3400               	retlw	0
  1024  0B92  3400               	retlw	0
  1025  0B93  3403               	retlw	3
  1026  0B94  3407               	retlw	7
  1027  0B95  340F               	retlw	15
  1028  0B96  340F               	retlw	15
  1029  0B97  341F               	retlw	31
  1030  0B98  341F               	retlw	31
  1031  0B99  343F               	retlw	63
  1032  0B9A  343F               	retlw	63
  1033  0B9B  343F               	retlw	63
  1034  0B9C  343F               	retlw	63
  1035  0B9D  343F               	retlw	63
  1036  0B9E  343F               	retlw	63
  1037  0B9F  343F               	retlw	63
  1038  0BA0  343F               	retlw	63
  1039  0BA1  341F               	retlw	31
  1040  0BA2  341F               	retlw	31
  1041  0BA3  340F               	retlw	15
  1042  0BA4  3407               	retlw	7
  1043  0BA5  3403               	retlw	3
  1044  0BA6  3481               	retlw	129
  1045  0BA7  34C0               	retlw	192
  1046  0BA8  34E0               	retlw	224
  1047  0BA9  34F0               	retlw	240
  1048  0BAA  34FC               	retlw	252
  1049  0BAB  34FF               	retlw	255
  1050  0BAC  34FF               	retlw	255
  1051  0BAD  34FF               	retlw	255
  1052  0BAE  341C               	retlw	28
  1053  0BAF  3418               	retlw	24
  1054  0BB0  3418               	retlw	24
  1055  0BB1  3418               	retlw	24
  1056  0BB2  3418               	retlw	24
  1057  0BB3  3418               	retlw	24
  1058  0BB4  3418               	retlw	24
  1059  0BB5  34FF               	retlw	255
  1060  0BB6  34FF               	retlw	255
  1061  0BB7  34FF               	retlw	255
  1062  0BB8  34FF               	retlw	255
  1063  0BB9  34FF               	retlw	255
  1064  0BBA  34FF               	retlw	255
  1065  0BBB  34FF               	retlw	255
  1066  0BBC  34FF               	retlw	255
  1067  0BBD  34FF               	retlw	255
  1068  0BBE  34FF               	retlw	255
  1069  0BBF  34FF               	retlw	255
  1070  0BC0  34FF               	retlw	255
  1071  0BC1  34FF               	retlw	255
  1072  0BC2  34FF               	retlw	255
  1073  0BC3  34FF               	retlw	255
  1074  0BC4  34FF               	retlw	255
  1075  0BC5  34FF               	retlw	255
  1076  0BC6  34FF               	retlw	255
  1077  0BC7  34FF               	retlw	255
  1078  0BC8  34FF               	retlw	255
  1079  0BC9  34FF               	retlw	255
  1080  0BCA  34FF               	retlw	255
  1081  0BCB  34FF               	retlw	255
  1082  0BCC  34FF               	retlw	255
  1083  0BCD  34FF               	retlw	255
  1084  0BCE  34FF               	retlw	255
  1085  0BCF  34FF               	retlw	255
  1086  0BD0  3418               	retlw	24
  1087  0BD1  3418               	retlw	24
  1088  0BD2  3418               	retlw	24
  1089  0BD3  3418               	retlw	24
  1090  0BD4  3418               	retlw	24
  1091  0BD5  3418               	retlw	24
  1092  0BD6  3418               	retlw	24
  1093  0BD7  34FF               	retlw	255
  1094  0BD8  34FF               	retlw	255
  1095  0BD9  34FF               	retlw	255
  1096  0BDA  34FF               	retlw	255
  1097  0BDB  34FF               	retlw	255
  1098  0BDC  34FF               	retlw	255
  1099  0BDD  34FF               	retlw	255
  1100  0BDE  34FF               	retlw	255
  1101  0BDF  3400               	retlw	0
  1102  0BE0  3400               	retlw	0
  1103  0BE1  3400               	retlw	0
  1104  0BE2  3400               	retlw	0
  1105  0BE3  3400               	retlw	0
  1106  0BE4  3400               	retlw	0
  1107  0BE5  3400               	retlw	0
  1108  0BE6  3400               	retlw	0
  1109  0BE7  3400               	retlw	0
  1110  0BE8  3400               	retlw	0
  1111  0BE9  3400               	retlw	0
  1112  0BEA  3400               	retlw	0
  1113  0BEB  3400               	retlw	0
  1114  0BEC  3400               	retlw	0
  1115  0BED  3400               	retlw	0
  1116  0BEE  3400               	retlw	0
  1117  0BEF  3400               	retlw	0
  1118  0BF0  3400               	retlw	0
  1119  0BF1  3400               	retlw	0
  1120  0BF2  3400               	retlw	0
  1121  0BF3  3400               	retlw	0
  1122  0BF4  3400               	retlw	0
  1123  0BF5  3400               	retlw	0
  1124  0BF6  3400               	retlw	0
  1125  0BF7  3400               	retlw	0
  1126  0BF8  3400               	retlw	0
  1127  0BF9  3400               	retlw	0
  1128  0BFA  340F               	retlw	15
  1129  0BFB  347F               	retlw	127
  1130  0BFC  34FF               	retlw	255
  1131  0BFD  34FF               	retlw	255
  1132  0BFE  34FF               	retlw	255
  1133  0BFF  34FF               	retlw	255
  1134  0C00  34FF               	retlw	255
  1135  0C01  34FF               	retlw	255
  1136  0C02  34FF               	retlw	255
  1137  0C03  34FF               	retlw	255
  1138  0C04  34FF               	retlw	255
  1139  0C05  34FF               	retlw	255
  1140  0C06  34FF               	retlw	255
  1141  0C07  347F               	retlw	127
  1142  0C08  343F               	retlw	63
  1143  0C09  341F               	retlw	31
  1144  0C0A  340F               	retlw	15
  1145  0C0B  3407               	retlw	7
  1146  0C0C  3403               	retlw	3
  1147  0C0D  3481               	retlw	129
  1148  0C0E  34C0               	retlw	192
  1149  0C0F  34E0               	retlw	224
  1150  0C10  34F0               	retlw	240
  1151  0C11  34F8               	retlw	248
  1152  0C12  34FC               	retlw	252
  1153  0C13  34FE               	retlw	254
  1154  0C14  34FF               	retlw	255
  1155  0C15  34FE               	retlw	254
  1156  0C16  34FE               	retlw	254
  1157  0C17  34FE               	retlw	254
  1158  0C18  34FC               	retlw	252
  1159  0C19  34FC               	retlw	252
  1160  0C1A  34FC               	retlw	252
  1161  0C1B  34FC               	retlw	252
  1162  0C1C  34FC               	retlw	252
  1163  0C1D  34FC               	retlw	252
  1164  0C1E  34FC               	retlw	252
  1165  0C1F  34FC               	retlw	252
  1166  0C20  34FC               	retlw	252
  1167  0C21  34FE               	retlw	254
  1168  0C22  34FE               	retlw	254
  1169  0C23  34FE               	retlw	254
  1170  0C24  34FF               	retlw	255
  1171  0C25  34FF               	retlw	255
  1172  0C26  34FF               	retlw	255
  1173  0C27  34FF               	retlw	255
  1174  0C28  34FF               	retlw	255
  1175  0C29  34FF               	retlw	255
  1176  0C2A  34FF               	retlw	255
  1177  0C2B  34FF               	retlw	255
  1178  0C2C  34FF               	retlw	255
  1179  0C2D  34FF               	retlw	255
  1180  0C2E  3486               	retlw	134
  1181  0C2F  3486               	retlw	134
  1182  0C30  3486               	retlw	134
  1183  0C31  3486               	retlw	134
  1184  0C32  3486               	retlw	134
  1185  0C33  3486               	retlw	134
  1186  0C34  3486               	retlw	134
  1187  0C35  34FF               	retlw	255
  1188  0C36  34FF               	retlw	255
  1189  0C37  34FF               	retlw	255
  1190  0C38  34FF               	retlw	255
  1191  0C39  34FF               	retlw	255
  1192  0C3A  34FF               	retlw	255
  1193  0C3B  34FF               	retlw	255
  1194  0C3C  34FF               	retlw	255
  1195  0C3D  34FF               	retlw	255
  1196  0C3E  34FF               	retlw	255
  1197  0C3F  34FF               	retlw	255
  1198  0C40  34FF               	retlw	255
  1199  0C41  34FF               	retlw	255
  1200  0C42  34FF               	retlw	255
  1201  0C43  34FF               	retlw	255
  1202  0C44  34FF               	retlw	255
  1203  0C45  34FF               	retlw	255
  1204  0C46  34FF               	retlw	255
  1205  0C47  34FF               	retlw	255
  1206  0C48  34FF               	retlw	255
  1207  0C49  34FF               	retlw	255
  1208  0C4A  34FF               	retlw	255
  1209  0C4B  34FF               	retlw	255
  1210  0C4C  34FF               	retlw	255
  1211  0C4D  34FF               	retlw	255
  1212  0C4E  34FF               	retlw	255
  1213  0C4F  34FF               	retlw	255
  1214  0C50  3486               	retlw	134
  1215  0C51  3486               	retlw	134
  1216  0C52  3486               	retlw	134
  1217  0C53  3486               	retlw	134
  1218  0C54  3486               	retlw	134
  1219  0C55  3486               	retlw	134
  1220  0C56  3486               	retlw	134
  1221  0C57  34FF               	retlw	255
  1222  0C58  34FF               	retlw	255
  1223  0C59  34FF               	retlw	255
  1224  0C5A  34FF               	retlw	255
  1225  0C5B  34FF               	retlw	255
  1226  0C5C  347F               	retlw	127
  1227  0C5D  341F               	retlw	31
  1228  0C5E  3403               	retlw	3
  1229  0C5F  3400               	retlw	0
  1230  0C60  3400               	retlw	0
  1231  0C61  3400               	retlw	0
  1232  0C62  3400               	retlw	0
  1233  0C63  3400               	retlw	0
  1234  0C64  3400               	retlw	0
  1235  0C65  3400               	retlw	0
  1236  0C66  3400               	retlw	0
  1237  0C67  3400               	retlw	0
  1238  0C68  3400               	retlw	0
  1239  0C69  3400               	retlw	0
  1240  0C6A  3400               	retlw	0
  1241  0C6B  3400               	retlw	0
  1242  0C6C  3400               	retlw	0
  1243  0C6D  3400               	retlw	0
  1244  0C6E  3400               	retlw	0
  1245  0C6F  3400               	retlw	0
  1246  0C70  3400               	retlw	0
  1247  0C71  3400               	retlw	0
  1248  0C72  3400               	retlw	0
  1249  0C73  3400               	retlw	0
  1250  0C74  3400               	retlw	0
  1251  0C75  3400               	retlw	0
  1252  0C76  3400               	retlw	0
  1253  0C77  3400               	retlw	0
  1254  0C78  3400               	retlw	0
  1255  0C79  3400               	retlw	0
  1256  0C7A  3400               	retlw	0
  1257  0C7B  3400               	retlw	0
  1258  0C7C  3401               	retlw	1
  1259  0C7D  3403               	retlw	3
  1260  0C7E  340F               	retlw	15
  1261  0C7F  341F               	retlw	31
  1262  0C80  343F               	retlw	63
  1263  0C81  347F               	retlw	127
  1264  0C82  34EF               	retlw	239
  1265  0C83  34C7               	retlw	199
  1266  0C84  3483               	retlw	131
  1267  0C85  3481               	retlw	129
  1268  0C86  34C0               	retlw	192
  1269  0C87  34E0               	retlw	224
  1270  0C88  34F0               	retlw	240
  1271  0C89  34F8               	retlw	248
  1272  0C8A  34FC               	retlw	252
  1273  0C8B  34FE               	retlw	254
  1274  0C8C  34FF               	retlw	255
  1275  0C8D  34FF               	retlw	255
  1276  0C8E  34FF               	retlw	255
  1277  0C8F  34FF               	retlw	255
  1278  0C90  34FF               	retlw	255
  1279  0C91  34FF               	retlw	255
  1280  0C92  34FF               	retlw	255
  1281  0C93  34FF               	retlw	255
  1282  0C94  34FF               	retlw	255
  1283  0C95  34FF               	retlw	255
  1284  0C96  34FF               	retlw	255
  1285  0C97  34FF               	retlw	255
  1286  0C98  34FF               	retlw	255
  1287  0C99  34FF               	retlw	255
  1288  0C9A  34FF               	retlw	255
  1289  0C9B  34FF               	retlw	255
  1290  0C9C  34FF               	retlw	255
  1291  0C9D  34FF               	retlw	255
  1292  0C9E  34FF               	retlw	255
  1293  0C9F  34FF               	retlw	255
  1294  0CA0  34FF               	retlw	255
  1295  0CA1  34FF               	retlw	255
  1296  0CA2  34FF               	retlw	255
  1297  0CA3  34FF               	retlw	255
  1298  0CA4  34FF               	retlw	255
  1299  0CA5  34FF               	retlw	255
  1300  0CA6  34FF               	retlw	255
  1301  0CA7  34FF               	retlw	255
  1302  0CA8  34FF               	retlw	255
  1303  0CA9  34FF               	retlw	255
  1304  0CAA  34FF               	retlw	255
  1305  0CAB  34FF               	retlw	255
  1306  0CAC  34FF               	retlw	255
  1307  0CAD  34FF               	retlw	255
  1308  0CAE  34FF               	retlw	255
  1309  0CAF  34FF               	retlw	255
  1310  0CB0  34FF               	retlw	255
  1311  0CB1  34FF               	retlw	255
  1312  0CB2  34FF               	retlw	255
  1313  0CB3  34FF               	retlw	255
  1314  0CB4  34FF               	retlw	255
  1315  0CB5  34FF               	retlw	255
  1316  0CB6  34C0               	retlw	192
  1317  0CB7  34C0               	retlw	192
  1318  0CB8  34C0               	retlw	192
  1319  0CB9  34C0               	retlw	192
  1320  0CBA  34C0               	retlw	192
  1321  0CBB  34FF               	retlw	255
  1322  0CBC  34FF               	retlw	255
  1323  0CBD  34C0               	retlw	192
  1324  0CBE  34C0               	retlw	192
  1325  0CBF  34C0               	retlw	192
  1326  0CC0  34C0               	retlw	192
  1327  0CC1  34C0               	retlw	192
  1328  0CC2  34FF               	retlw	255
  1329  0CC3  34FF               	retlw	255
  1330  0CC4  34C0               	retlw	192
  1331  0CC5  34C0               	retlw	192
  1332  0CC6  34C0               	retlw	192
  1333  0CC7  34C0               	retlw	192
  1334  0CC8  34C0               	retlw	192
  1335  0CC9  34FF               	retlw	255
  1336  0CCA  34FF               	retlw	255
  1337  0CCB  34C0               	retlw	192
  1338  0CCC  34C0               	retlw	192
  1339  0CCD  34C0               	retlw	192
  1340  0CCE  34C0               	retlw	192
  1341  0CCF  34FF               	retlw	255
  1342  0CD0  34FF               	retlw	255
  1343  0CD1  34FF               	retlw	255
  1344  0CD2  34FF               	retlw	255
  1345  0CD3  34FF               	retlw	255
  1346  0CD4  34FF               	retlw	255
  1347  0CD5  34FF               	retlw	255
  1348  0CD6  347F               	retlw	127
  1349  0CD7  343F               	retlw	63
  1350  0CD8  341F               	retlw	31
  1351  0CD9  340F               	retlw	15
  1352  0CDA  3403               	retlw	3
  1353  0CDB  3401               	retlw	1
  1354  0CDC  3400               	retlw	0
  1355  0CDD  3400               	retlw	0
  1356  0CDE  3400               	retlw	0
  1357  0CDF  3400               	retlw	0
  1358  0CE0  3400               	retlw	0
  1359  0CE1  3400               	retlw	0
  1360  0CE2  3400               	retlw	0
  1361  0CE3  3400               	retlw	0
  1362  0CE4  3400               	retlw	0
  1363  0CE5  3400               	retlw	0
  1364  0CE6  3400               	retlw	0
  1365  0CE7  3400               	retlw	0
  1366  0CE8  3400               	retlw	0
  1367  0CE9  3400               	retlw	0
  1368  0CEA  3400               	retlw	0
  1369  0CEB  3400               	retlw	0
  1370  0CEC  3400               	retlw	0
  1371  0CED  3400               	retlw	0
  1372  0CEE  3400               	retlw	0
  1373  0CEF  3400               	retlw	0
  1374  0CF0  3400               	retlw	0
  1375  0CF1  3400               	retlw	0
  1376  0CF2  3400               	retlw	0
  1377  0CF3  3400               	retlw	0
  1378  0CF4  3400               	retlw	0
  1379  0CF5  3400               	retlw	0
  1380  0CF6  3400               	retlw	0
  1381  0CF7  3400               	retlw	0
  1382  0CF8  3480               	retlw	128
  1383  0CF9  3480               	retlw	128
  1384  0CFA  3480               	retlw	128
  1385  0CFB  3480               	retlw	128
  1386  0CFC  3400               	retlw	0
  1387  0CFD  3400               	retlw	0
  1388  0CFE  3400               	retlw	0
  1389  0CFF  3400               	retlw	0
  1390  0D00  3400               	retlw	0
  1391  0D01  3400               	retlw	0
  1392  0D02  3400               	retlw	0
  1393  0D03  3401               	retlw	1
  1394  0D04  3401               	retlw	1
  1395  0D05  3403               	retlw	3
  1396  0D06  3407               	retlw	7
  1397  0D07  3407               	retlw	7
  1398  0D08  340F               	retlw	15
  1399  0D09  340F               	retlw	15
  1400  0D0A  349F               	retlw	159
  1401  0D0B  341F               	retlw	31
  1402  0D0C  343F               	retlw	63
  1403  0D0D  343F               	retlw	63
  1404  0D0E  343F               	retlw	63
  1405  0D0F  347F               	retlw	127
  1406  0D10  347F               	retlw	127
  1407  0D11  347F               	retlw	127
  1408  0D12  347F               	retlw	127
  1409  0D13  347F               	retlw	127
  1410  0D14  347F               	retlw	127
  1411  0D15  347F               	retlw	127
  1412  0D16  347F               	retlw	127
  1413  0D17  347F               	retlw	127
  1414  0D18  347F               	retlw	127
  1415  0D19  347F               	retlw	127
  1416  0D1A  347F               	retlw	127
  1417  0D1B  347F               	retlw	127
  1418  0D1C  34FF               	retlw	255
  1419  0D1D  34FF               	retlw	255
  1420  0D1E  34FF               	retlw	255
  1421  0D1F  34BF               	retlw	191
  1422  0D20  343F               	retlw	63
  1423  0D21  343F               	retlw	63
  1424  0D22  343F               	retlw	63
  1425  0D23  341F               	retlw	31
  1426  0D24  341F               	retlw	31
  1427  0D25  340F               	retlw	15
  1428  0D26  340F               	retlw	15
  1429  0D27  3407               	retlw	7
  1430  0D28  3407               	retlw	7
  1431  0D29  3403               	retlw	3
  1432  0D2A  3481               	retlw	129
  1433  0D2B  3401               	retlw	1
  1434  0D2C  3400               	retlw	0
  1435  0D2D  3401               	retlw	1
  1436  0D2E  3401               	retlw	1
  1437  0D2F  3403               	retlw	3
  1438  0D30  3407               	retlw	7
  1439  0D31  3407               	retlw	7
  1440  0D32  340F               	retlw	15
  1441  0D33  340F               	retlw	15
  1442  0D34  341F               	retlw	31
  1443  0D35  341F               	retlw	31
  1444  0D36  341F               	retlw	31
  1445  0D37  343F               	retlw	63
  1446  0D38  343F               	retlw	63
  1447  0D39  34BF               	retlw	191
  1448  0D3A  343F               	retlw	63
  1449  0D3B  347F               	retlw	127
  1450  0D3C  347F               	retlw	127
  1451  0D3D  347F               	retlw	127
  1452  0D3E  347F               	retlw	127
  1453  0D3F  34FF               	retlw	255
  1454  0D40  347F               	retlw	127
  1455  0D41  347F               	retlw	127
  1456  0D42  347F               	retlw	127
  1457  0D43  347F               	retlw	127
  1458  0D44  347F               	retlw	127
  1459  0D45  347F               	retlw	127
  1460  0D46  347F               	retlw	127
  1461  0D47  343F               	retlw	63
  1462  0D48  343F               	retlw	63
  1463  0D49  343F               	retlw	63
  1464  0D4A  343F               	retlw	63
  1465  0D4B  349F               	retlw	159
  1466  0D4C  341F               	retlw	31
  1467  0D4D  341F               	retlw	31
  1468  0D4E  340F               	retlw	15
  1469  0D4F  340F               	retlw	15
  1470  0D50  3407               	retlw	7
  1471  0D51  3407               	retlw	7
  1472  0D52  3403               	retlw	3
  1473  0D53  3401               	retlw	1
  1474  0D54  3401               	retlw	1
  1475  0D55  3400               	retlw	0
  1476  0D56  3400               	retlw	0
  1477  0D57  3400               	retlw	0
  1478  0D58  3400               	retlw	0
  1479  0D59  3400               	retlw	0
  1480  0D5A  3400               	retlw	0
  1481  0D5B  3400               	retlw	0
  1482  0D5C  3400               	retlw	0
  1483  0D5D  3400               	retlw	0
  1484  0D5E  3400               	retlw	0
  1485  0D5F  3400               	retlw	0
  1486  0D60  3400               	retlw	0
  1487  0D61  3400               	retlw	0
  1488  0D62  3400               	retlw	0
  1489  0D63  3400               	retlw	0
  1490  0D64  3400               	retlw	0
  1491  0D65  3400               	retlw	0
  1492  0D66  3400               	retlw	0
  1493  0D67  3400               	retlw	0
  1494  0D68  3400               	retlw	0
  1495  0D69  3400               	retlw	0
  1496  0D6A  3400               	retlw	0
  1497  0D6B  3400               	retlw	0
  1498  0D6C  3400               	retlw	0
  1499  0D6D  3400               	retlw	0
  1500  0D6E  3400               	retlw	0
  1501  0D6F  3400               	retlw	0
  1502  0D70  3400               	retlw	0
  1503  0D71  3400               	retlw	0
  1504  0D72  3400               	retlw	0
  1505  0D73  3400               	retlw	0
  1506  0D74  3400               	retlw	0
  1507  0D75  3400               	retlw	0
  1508  0D76  3400               	retlw	0
  1509  0D77  3400               	retlw	0
  1510  0D78  347F               	retlw	127
  1511  0D79  3444               	retlw	68
  1512  0D7A  3444               	retlw	68
  1513  0D7B  3444               	retlw	68
  1514  0D7C  3400               	retlw	0
  1515  0D7D  3442               	retlw	66
  1516  0D7E  3466               	retlw	102
  1517  0D7F  3418               	retlw	24
  1518  0D80  341C               	retlw	28
  1519  0D81  3466               	retlw	102
  1520  0D82  3440               	retlw	64
  1521  0D83  3400               	retlw	0
  1522  0D84  34FE               	retlw	254
  1523  0D85  3442               	retlw	66
  1524  0D86  3442               	retlw	66
  1525  0D87  347E               	retlw	126
  1526  0D88  3400               	retlw	0
  1527  0D89  3400               	retlw	0
  1528  0D8A  347F               	retlw	127
  1529  0D8B  3400               	retlw	0
  1530  0D8C  343C               	retlw	60
  1531  0D8D  3442               	retlw	66
  1532  0D8E  3442               	retlw	66
  1533  0D8F  343C               	retlw	60
  1534  0D90  3400               	retlw	0
  1535  0D91  3400               	retlw	0
  1536  0D92  347E               	retlw	126
  1537  0D93  3402               	retlw	2
  1538  0D94  3402               	retlw	2
  1539  0D95  3400               	retlw	0
  1540  0D96  343C               	retlw	60
  1541  0D97  344A               	retlw	74
  1542  0D98  344A               	retlw	74
  1543  0D99  346E               	retlw	110
  1544  0D9A  3400               	retlw	0
  1545  0D9B  3400               	retlw	0
  1546  0D9C  347F               	retlw	127
  1547  0D9D  3444               	retlw	68
  1548  0D9E  3444               	retlw	68
  1549  0D9F  3444               	retlw	68
  1550  0DA0  3400               	retlw	0
  1551  0DA1  3400               	retlw	0
  1552  0DA2  347E               	retlw	126
  1553  0DA3  3402               	retlw	2
  1554  0DA4  3402               	retlw	2
  1555  0DA5  347C               	retlw	124
  1556  0DA6  3402               	retlw	2
  1557  0DA7  3402               	retlw	2
  1558  0DA8  347C               	retlw	124
  1559  0DA9  3400               	retlw	0
  1560  0DAA  347F               	retlw	127
  1561  0DAB  3442               	retlw	66
  1562  0DAC  3442               	retlw	66
  1563  0DAD  347E               	retlw	126
  1564  0DAE  3400               	retlw	0
  1565  0DAF  3400               	retlw	0
  1566  0DB0  343C               	retlw	60
  1567  0DB1  344A               	retlw	74
  1568  0DB2  344A               	retlw	74
  1569  0DB3  346E               	retlw	110
  1570  0DB4  3400               	retlw	0
  1571  0DB5  3400               	retlw	0
  1572  0DB6  343C               	retlw	60
  1573  0DB7  3442               	retlw	66
  1574  0DB8  3442               	retlw	66
  1575  0DB9  347F               	retlw	127
  1576  0DBA  3400               	retlw	0
  1577  0DBB  3400               	retlw	0
  1578  0DBC  343C               	retlw	60
  1579  0DBD  3442               	retlw	66
  1580  0DBE  3442               	retlw	66
  1581  0DBF  347F               	retlw	127
  1582  0DC0  3400               	retlw	0
  1583  0DC1  3400               	retlw	0
  1584  0DC2  343C               	retlw	60
  1585  0DC3  344A               	retlw	74
  1586  0DC4  344A               	retlw	74
  1587  0DC5  346E               	retlw	110
  1588  0DC6  3400               	retlw	0
  1589  0DC7  3400               	retlw	0
  1590  0DC8  343C               	retlw	60
  1591  0DC9  3442               	retlw	66
  1592  0DCA  3442               	retlw	66
  1593  0DCB  347F               	retlw	127
  1594  0DCC  3400               	retlw	0
  1595  0DCD  3400               	retlw	0
  1596  0DCE  3440               	retlw	64
  1597  0DCF  3400               	retlw	0
  1598  0DD0  3400               	retlw	0
  1599  0DD1  343C               	retlw	60
  1600  0DD2  3442               	retlw	66
  1601  0DD3  3442               	retlw	66
  1602  0DD4  3442               	retlw	66
  1603  0DD5  3424               	retlw	36
  1604  0DD6  3400               	retlw	0
  1605  0DD7  343C               	retlw	60
  1606  0DD8  3442               	retlw	66
  1607  0DD9  3442               	retlw	66
  1608  0DDA  343C               	retlw	60
  1609  0DDB  3400               	retlw	0
  1610  0DDC  3400               	retlw	0
  1611  0DDD  347E               	retlw	126
  1612  0DDE  3402               	retlw	2
  1613  0DDF  3402               	retlw	2
  1614  0DE0  347C               	retlw	124
  1615  0DE1  3402               	retlw	2
  1616  0DE2  3402               	retlw	2
  1617  0DE3  347C               	retlw	124
  1618  0DE4  3400               	retlw	0
  1619  0DE5  3400               	retlw	0
  1620  0DE6  3400               	retlw	0
  1621  0DE7  3400               	retlw	0
  1622  0DE8  3400               	retlw	0
  1623  0DE9  3400               	retlw	0
  1624  0DEA  3400               	retlw	0
  1625  0DEB  3400               	retlw	0
  1626  0DEC  3400               	retlw	0
  1627  0DED                     __end_of_LogoBitMap:	
  1628  0006                     _PORTB	set	6
  1629  0008                     _PORTD	set	8
  1630  0086                     _TRISB	set	134
  1631  0088                     _TRISD	set	136
  1632  0DED                     STR_1:	
  1633  0DED  3444               	retlw	68	;'D'
  1634  0DEE  3465               	retlw	101	;'e'
  1635  0DEF  3463               	retlw	99	;'c'
  1636  0DF0  343A               	retlw	58	;':'
  1637  0DF1  3425               	retlw	37	;'%'
  1638  0DF2  3464               	retlw	100	;'d'
  1639  0DF3  3420               	retlw	32	;' '
  1640  0DF4  340A               	retlw	10
  1641  0DF5  3448               	retlw	72	;'H'
  1642  0DF6  3465               	retlw	101	;'e'
  1643  0DF7  3478               	retlw	120	;'x'
  1644  0DF8  343A               	retlw	58	;':'
  1645  0DF9  3425               	retlw	37	;'%'
  1646  0DFA  3478               	retlw	120	;'x'
  1647  0DFB  3420               	retlw	32	;' '
  1648  0DFC  340A               	retlw	10
  1649  0DFD  3442               	retlw	66	;'B'
  1650  0DFE  3469               	retlw	105	;'i'
  1651  0DFF  346E               	retlw	110	;'n'
  1652  0E00  343A               	retlw	58	;':'
  1653  0E01  3425               	retlw	37	;'%'
  1654  0E02  3462               	retlw	98	;'b'
  1655  0E03  3420               	retlw	32	;' '
  1656  0E04  340A               	retlw	10
  1657  0E05  3446               	retlw	70	;'F'
  1658  0E06  346C               	retlw	108	;'l'
  1659  0E07  346F               	retlw	111	;'o'
  1660  0E08  3461               	retlw	97	;'a'
  1661  0E09  3474               	retlw	116	;'t'
  1662  0E0A  343A               	retlw	58	;':'
  1663  0E0B  3425               	retlw	37	;'%'
  1664  0E0C  3466               	retlw	102	;'f'
  1665  0E0D  3400               	retlw	0
  1666                           
  1667                           ; #config settings
  1668  0000                     
  1669                           	psect	cinit
  1670  07F8                     start_initialization:	
  1671  07F8                     __initialization:	
  1672                           
  1673                           ; Clear objects allocated to BANK0
  1674  07F8  01EA               	clrf	__pbssBANK0& (0+127)
  1675  07F9  01EB               	clrf	(__pbssBANK0+1)& (0+127)
  1676  07FA  01EC               	clrf	(__pbssBANK0+2)& (0+127)
  1677  07FB  01ED               	clrf	(__pbssBANK0+3)& (0+127)
  1678  07FC                     end_of_initialization:	
  1679                           ;End of C runtime variable initialization code
  1680                           
  1681  07FC                     __end_of__initialization:	
  1682  07FC  0183               	clrf	3
  1683  07FD  120A  118A  2B3E   	ljmp	_main	;jump to C main() function
  1684                           
  1685                           	psect	bssBANK0
  1686  006A                     __pbssBANK0:	
  1687  006A                     _GLCD:	
  1688  006A                     	ds	4
  1689                           
  1690                           	psect	cstackCOMMON
  1691  0070                     __pcstackCOMMON:	
  1692  0070                     ?_GLCD_Init:	
  1693  0070                     ?_GLCD_Clear:	
  1694                           ; 1 bytes @ 0x0
  1695                           
  1696  0070                     ?_glcd_SelectPage0:	
  1697                           ; 1 bytes @ 0x0
  1698                           
  1699  0070                     ??_glcd_SelectPage0:	
  1700                           ; 1 bytes @ 0x0
  1701                           
  1702  0070                     ?_glcd_CmdWrite:	
  1703                           ; 1 bytes @ 0x0
  1704                           
  1705  0070                     ?_glcd_SelectPage1:	
  1706                           ; 1 bytes @ 0x0
  1707                           
  1708  0070                     ??_glcd_SelectPage1:	
  1709                           ; 1 bytes @ 0x0
  1710                           
  1711  0070                     ?_GLCD_GoToPage:	
  1712                           ; 1 bytes @ 0x0
  1713                           
  1714  0070                     ?_GLCD_GoToNextLine:	
  1715                           ; 1 bytes @ 0x0
  1716                           
  1717  0070                     ?_glcd_DataWrite:	
  1718                           ; 1 bytes @ 0x0
  1719                           
  1720  0070                     ?_GLCD_GoToLine:	
  1721                           ; 1 bytes @ 0x0
  1722                           
  1723  0070                     ?_glcd_BusyCheck:	
  1724                           ; 1 bytes @ 0x0
  1725                           
  1726  0070                     ?_main:	
  1727                           ; 1 bytes @ 0x0
  1728                           
  1729  0070                     ?_DELAY_us:	
  1730                           ; 1 bytes @ 0x0
  1731                           
  1732  0070                     ?_GLCD_DisplayChar:	
  1733                           ; 1 bytes @ 0x0
  1734                           
  1735  0070                     ?_GLCD_DisplayString:	
  1736                           ; 1 bytes @ 0x0
  1737                           
  1738  0070                     ?___wmul:	
  1739                           ; 1 bytes @ 0x0
  1740                           
  1741  0070                     ?___awdiv:	
  1742                           ; 2 bytes @ 0x0
  1743                           
  1744  0070                     ?___awmod:	
  1745                           ; 2 bytes @ 0x0
  1746                           
  1747  0070                     ?___lldiv:	
  1748                           ; 2 bytes @ 0x0
  1749                           
  1750  0070                     DELAY_us@us_count:	
  1751                           ; 4 bytes @ 0x0
  1752                           
  1753  0070                     ___wmul@multiplier:	
  1754                           ; 2 bytes @ 0x0
  1755                           
  1756  0070                     ___awdiv@divisor:	
  1757                           ; 2 bytes @ 0x0
  1758                           
  1759  0070                     ___awmod@divisor:	
  1760                           ; 2 bytes @ 0x0
  1761                           
  1762  0070                     ___lldiv@divisor:	
  1763                           ; 2 bytes @ 0x0
  1764                           
  1765                           
  1766                           ; 4 bytes @ 0x0
  1767  0070                     	ds	2
  1768  0072                     ??_glcd_CmdWrite:	
  1769  0072                     ??_glcd_DataWrite:	
  1770                           ; 1 bytes @ 0x2
  1771                           
  1772  0072                     ??_glcd_BusyCheck:	
  1773                           ; 1 bytes @ 0x2
  1774                           
  1775  0072                     ??_DELAY_us:	
  1776                           ; 1 bytes @ 0x2
  1777                           
  1778  0072                     ?_DELAY_ms:	
  1779                           ; 1 bytes @ 0x2
  1780                           
  1781  0072                     DELAY_ms@ms_count:	
  1782                           ; 1 bytes @ 0x2
  1783                           
  1784  0072                     ___wmul@multiplicand:	
  1785                           ; 2 bytes @ 0x2
  1786                           
  1787  0072                     ___awdiv@dividend:	
  1788                           ; 2 bytes @ 0x2
  1789                           
  1790  0072                     ___awmod@dividend:	
  1791                           ; 2 bytes @ 0x2
  1792                           
  1793                           
  1794                           ; 2 bytes @ 0x2
  1795  0072                     	ds	1
  1796  0073                     glcd_CmdWrite@cmd:	
  1797  0073                     glcd_DataWrite@dat:	
  1798                           ; 1 bytes @ 0x3
  1799                           
  1800                           
  1801                           ; 1 bytes @ 0x3
  1802  0073                     	ds	1
  1803  0074                     ?_GLCD_DisplayLogo:	
  1804  0074                     ?_DELAY_sec:	
  1805                           ; 1 bytes @ 0x4
  1806                           
  1807  0074                     ??_GLCD_GoToPage:	
  1808                           ; 1 bytes @ 0x4
  1809                           
  1810  0074                     ??_DELAY_ms:	
  1811                           ; 1 bytes @ 0x4
  1812                           
  1813  0074                     ??___wmul:	
  1814                           ; 1 bytes @ 0x4
  1815                           
  1816  0074                     ??___awdiv:	
  1817                           ; 1 bytes @ 0x4
  1818                           
  1819  0074                     ??___awmod:	
  1820                           ; 1 bytes @ 0x4
  1821                           
  1822  0074                     DELAY_sec@sec_count:	
  1823                           ; 1 bytes @ 0x4
  1824                           
  1825  0074                     GLCD_DisplayLogo@ptr_Logo:	
  1826                           ; 2 bytes @ 0x4
  1827                           
  1828  0074                     ___wmul@product:	
  1829                           ; 2 bytes @ 0x4
  1830                           
  1831  0074                     ___lldiv@dividend:	
  1832                           ; 2 bytes @ 0x4
  1833                           
  1834                           
  1835                           ; 4 bytes @ 0x4
  1836  0074                     	ds	1
  1837  0075                     GLCD_GoToPage@pageNumber:	
  1838  0075                     ___awdiv@counter:	
  1839                           ; 1 bytes @ 0x5
  1840                           
  1841  0075                     ___awmod@counter:	
  1842                           ; 1 bytes @ 0x5
  1843                           
  1844                           
  1845                           ; 1 bytes @ 0x5
  1846  0075                     	ds	1
  1847  0076                     ??_GLCD_DisplayLogo:	
  1848  0076                     ??_DELAY_sec:	
  1849                           ; 1 bytes @ 0x6
  1850                           
  1851  0076                     ??_GLCD_GoToNextLine:	
  1852                           ; 1 bytes @ 0x6
  1853                           
  1854  0076                     ??_GLCD_GoToLine:	
  1855                           ; 1 bytes @ 0x6
  1856                           
  1857  0076                     ___awdiv@sign:	
  1858                           ; 1 bytes @ 0x6
  1859                           
  1860  0076                     ___awmod@sign:	
  1861                           ; 1 bytes @ 0x6
  1862                           
  1863                           
  1864                           ; 1 bytes @ 0x6
  1865  0076                     	ds	1
  1866  0077                     GLCD_DisplayChar@dat:	
  1867  0077                     GLCD_GoToLine@lineNumber:	
  1868                           ; 1 bytes @ 0x7
  1869                           
  1870  0077                     GLCD_DisplayLogo@cursor:	
  1871                           ; 1 bytes @ 0x7
  1872                           
  1873  0077                     ___awdiv@quotient:	
  1874                           ; 1 bytes @ 0x7
  1875                           
  1876                           
  1877                           ; 2 bytes @ 0x7
  1878  0077                     	ds	1
  1879  0078                     ??_GLCD_Clear:	
  1880  0078                     ??___lldiv:	
  1881                           ; 1 bytes @ 0x8
  1882                           
  1883  0078                     GLCD_DisplayChar@i:	
  1884                           ; 1 bytes @ 0x8
  1885                           
  1886  0078                     GLCD_DisplayLogo@line:	
  1887                           ; 1 bytes @ 0x8
  1888                           
  1889                           
  1890                           ; 1 bytes @ 0x8
  1891  0078                     	ds	1
  1892  0079                     ?_GLCD_SetCursor:	
  1893  0079                     GLCD_DisplayChar@ch:	
  1894                           ; 1 bytes @ 0x9
  1895                           
  1896  0079                     GLCD_Clear@cursor:	
  1897                           ; 1 bytes @ 0x9
  1898                           
  1899  0079                     GLCD_SetCursor@CursorPosition:	
  1900                           ; 1 bytes @ 0x9
  1901                           
  1902  0079                     ___lldiv@quotient:	
  1903                           ; 1 bytes @ 0x9
  1904                           
  1905                           
  1906                           ; 4 bytes @ 0x9
  1907  0079                     	ds	1
  1908  007A                     ??_GLCD_DisplayString:	
  1909  007A                     ??_GLCD_SetCursor:	
  1910                           ; 1 bytes @ 0xA
  1911                           
  1912  007A                     GLCD_Clear@line:	
  1913                           ; 1 bytes @ 0xA
  1914                           
  1915                           
  1916                           ; 1 bytes @ 0xA
  1917  007A                     	ds	1
  1918  007B                     ??_GLCD_Init:	
  1919  007B                     GLCD_DisplayString@ptr:	
  1920                           ; 1 bytes @ 0xB
  1921                           
  1922                           
  1923                           ; 1 bytes @ 0xB
  1924  007B                     	ds	2
  1925  007D                     ___lldiv@counter:	
  1926                           
  1927                           ; 1 bytes @ 0xD
  1928  007D                     	ds	1
  1929                           
  1930                           	psect	cstackBANK0
  1931  0020                     __pcstackBANK0:	
  1932  0020                     ??_GLCD_DisplayChar:	
  1933  0020                     ?___bmul:	
  1934                           ; 1 bytes @ 0x0
  1935                           
  1936  0020                     GLCD_SetCursor@lineNumber:	
  1937                           ; 1 bytes @ 0x0
  1938                           
  1939  0020                     ___bmul@multiplicand:	
  1940                           ; 1 bytes @ 0x0
  1941                           
  1942                           
  1943                           ; 1 bytes @ 0x0
  1944  0020                     	ds	1
  1945  0021                     ??___bmul:	
  1946  0021                     GLCD_SetCursor@pageNumber:	
  1947                           ; 1 bytes @ 0x1
  1948                           
  1949                           
  1950                           ; 1 bytes @ 0x1
  1951  0021                     	ds	1
  1952  0022                     ___bmul@product:	
  1953                           
  1954                           ; 1 bytes @ 0x2
  1955  0022                     	ds	1
  1956  0023                     ___bmul@multiplier:	
  1957                           
  1958                           ; 1 bytes @ 0x3
  1959  0023                     	ds	6
  1960  0029                     ?_GLCD_DisplayNumber:	
  1961  0029                     GLCD_DisplayNumber@v_number_u32:	
  1962                           ; 1 bytes @ 0x9
  1963                           
  1964                           
  1965                           ; 4 bytes @ 0x9
  1966  0029                     	ds	4
  1967  002D                     GLCD_DisplayNumber@v_numOfDigitsToDisplay_u8:	
  1968                           
  1969                           ; 1 bytes @ 0xD
  1970  002D                     	ds	1
  1971  002E                     ??_GLCD_DisplayNumber:	
  1972                           
  1973                           ; 1 bytes @ 0xE
  1974  002E                     	ds	12
  1975  003A                     GLCD_DisplayNumber@a:	
  1976                           
  1977                           ; 10 bytes @ 0x1A
  1978  003A                     	ds	10
  1979  0044                     _GLCD_DisplayNumber$148:	
  1980                           
  1981                           ; 2 bytes @ 0x24
  1982  0044                     	ds	2
  1983  0046                     GLCD_DisplayNumber@v_numericSystem_u8:	
  1984                           
  1985                           ; 1 bytes @ 0x26
  1986  0046                     	ds	1
  1987  0047                     GLCD_DisplayNumber@i:	
  1988                           
  1989                           ; 1 bytes @ 0x27
  1990  0047                     	ds	1
  1991  0048                     ?_GLCD_Printf:	
  1992  0048                     ?_GLCD_HorizontalGraph:	
  1993                           ; 1 bytes @ 0x28
  1994                           
  1995  0048                     ?_GLCD_VerticalGraph:	
  1996                           ; 1 bytes @ 0x28
  1997                           
  1998  0048                     GLCD_VerticalGraph@var_percentageValue_u8:	
  1999                           ; 1 bytes @ 0x28
  2000                           
  2001  0048                     GLCD_HorizontalGraph@var_percentageValue_u8:	
  2002                           ; 1 bytes @ 0x28
  2003                           
  2004  0048                     GLCD_Printf@argList:	
  2005                           ; 1 bytes @ 0x28
  2006                           
  2007                           
  2008                           ; 2 bytes @ 0x28
  2009  0048                     	ds	1
  2010  0049                     ??_GLCD_HorizontalGraph:	
  2011  0049                     ??_GLCD_VerticalGraph:	
  2012                           ; 1 bytes @ 0x29
  2013                           
  2014                           
  2015                           ; 1 bytes @ 0x29
  2016  0049                     	ds	5
  2017  004E                     GLCD_VerticalGraph@var_lineNumberToStartDisplay_u8:	
  2018  004E                     GLCD_HorizontalGraph@var_barGraphNumber_u8:	
  2019                           ; 1 bytes @ 0x2E
  2020                           
  2021                           
  2022                           ; 1 bytes @ 0x2E
  2023  004E                     	ds	1
  2024  004F                     GLCD_VerticalGraph@var_barGraphNumber_u8:	
  2025  004F                     GLCD_HorizontalGraph@var_lineNumber_u8:	
  2026                           ; 1 bytes @ 0x2F
  2027                           
  2028                           
  2029                           ; 1 bytes @ 0x2F
  2030  004F                     	ds	1
  2031  0050                     GLCD_VerticalGraph@var_barGraphPosition_u8:	
  2032  0050                     GLCD_HorizontalGraph@i:	
  2033                           ; 1 bytes @ 0x30
  2034                           
  2035                           
  2036                           ; 1 bytes @ 0x30
  2037  0050                     	ds	1
  2038  0051                     GLCD_VerticalGraph@lineNumber:	
  2039                           
  2040                           ; 1 bytes @ 0x31
  2041  0051                     	ds	1
  2042  0052                     GLCD_VerticalGraph@j:	
  2043                           
  2044                           ; 1 bytes @ 0x32
  2045  0052                     	ds	1
  2046  0053                     ??_GLCD_Printf:	
  2047  0053                     GLCD_VerticalGraph@var_valueToDisplay_u8:	
  2048                           ; 1 bytes @ 0x33
  2049                           
  2050                           
  2051                           ; 1 bytes @ 0x33
  2052  0053                     	ds	1
  2053  0054                     GLCD_VerticalGraph@i:	
  2054                           
  2055                           ; 1 bytes @ 0x34
  2056  0054                     	ds	1
  2057  0055                     GLCD_Printf@str:	
  2058                           
  2059                           ; 1 bytes @ 0x35
  2060  0055                     	ds	1
  2061  0056                     GLCD_Printf@v_num_s32:	
  2062                           
  2063                           ; 4 bytes @ 0x36
  2064  0056                     	ds	4
  2065  005A                     GLCD_Printf@v_num_s16:	
  2066                           
  2067                           ; 2 bytes @ 0x3A
  2068  005A                     	ds	2
  2069  005C                     GLCD_Printf@v_num_u32:	
  2070                           
  2071                           ; 4 bytes @ 0x3C
  2072  005C                     	ds	4
  2073  0060                     GLCD_Printf@v_num_u16:	
  2074                           
  2075                           ; 2 bytes @ 0x40
  2076  0060                     	ds	2
  2077  0062                     GLCD_Printf@ptr:	
  2078                           
  2079                           ; 2 bytes @ 0x42
  2080  0062                     	ds	2
  2081  0064                     GLCD_Printf@ch:	
  2082                           
  2083                           ; 1 bytes @ 0x44
  2084  0064                     	ds	1
  2085  0065                     GLCD_Printf@v_numOfDigitsToDisp_u8:	
  2086                           
  2087                           ; 1 bytes @ 0x45
  2088  0065                     	ds	1
  2089  0066                     GLCD_Printf@argp:	
  2090                           
  2091                           ; 1 bytes @ 0x46
  2092  0066                     	ds	1
  2093  0067                     ??_main:	
  2094                           
  2095                           ; 1 bytes @ 0x47
  2096  0067                     	ds	1
  2097  0068                     main@num:	
  2098                           
  2099                           ; 2 bytes @ 0x48
  2100  0068                     	ds	2
  2101                           
  2102                           	psect	maintext
  2103  033E                     __pmaintext:	
  2104 ;;
  2105 ;;Main: autosize = 0, tempsize = 1, incstack = 0, save=0
  2106 ;;
  2107 ;; *************** function _main *****************
  2108 ;; Defined at:
  2109 ;;		line 7 in file "main.c"
  2110 ;; Parameters:    Size  Location     Type
  2111 ;;		None
  2112 ;; Auto vars:     Size  Location     Type
  2113 ;;  num             2   72[BANK0 ] int 
  2114 ;; Return value:  Size  Location     Type
  2115 ;;                  1    wreg      void 
  2116 ;; Registers used:
  2117 ;;		wreg, fsr0l, fsr0h, status,2, status,0, btemp+1, pclath, cstack
  2118 ;; Tracked objects:
  2119 ;;		On entry : B00/0
  2120 ;;		On exit  : 0/0
  2121 ;;		Unchanged: 0/0
  2122 ;; Data sizes:     COMMON   BANK0   BANK1   BANK3   BANK2
  2123 ;;      Params:         0       0       0       0       0
  2124 ;;      Locals:         0       2       0       0       0
  2125 ;;      Temps:          0       1       0       0       0
  2126 ;;      Totals:         0       3       0       0       0
  2127 ;;Total ram usage:        3 bytes
  2128 ;; Hardware stack levels required when called:    8
  2129 ;; This function calls:
  2130 ;;		_DELAY_sec
  2131 ;;		_GLCD_Clear
  2132 ;;		_GLCD_DisplayLogo
  2133 ;;		_GLCD_HorizontalGraph
  2134 ;;		_GLCD_Init
  2135 ;;		_GLCD_Printf
  2136 ;;		_GLCD_VerticalGraph
  2137 ;; This function is called by:
  2138 ;;		Startup code after reset
  2139 ;; This function uses a non-reentrant model
  2140 ;;
  2141                           
  2142                           
  2143                           ;psect for function _main
  2144  033E                     _main:	
  2145                           
  2146                           ;main.c: 9: int num = 1234;
  2147                           
  2148                           ;incstack = 0
  2149                           ; Regs used in _main: [wreg-fsr0h+status,2+status,0+btemp+1+pclath+cstack]
  2150  033E  30D2               	movlw	210
  2151  033F  1283               	bcf	3,5	;RP0=0, select bank0
  2152  0340  1303               	bcf	3,6	;RP1=0, select bank0
  2153  0341  00E8               	movwf	main@num
  2154  0342  3004               	movlw	4
  2155  0343  00E9               	movwf	main@num+1
  2156                           
  2157                           ;main.c: 10: GLCD_Init();
  2158  0344  120A  118A  20C1  120A  118A  	fcall	_GLCD_Init
  2159  0349                     l2031:	
  2160                           ;main.c: 12: while (1)
  2161                           
  2162                           
  2163                           ;main.c: 13: {
  2164                           ;main.c: 14: GLCD_Clear();
  2165  0349  120A  118A  201F  120A  118A  	fcall	_GLCD_Clear
  2166                           
  2167                           ;main.c: 15: GLCD_DisplayLogo(LogoBitMap);
  2168  034E  30ED               	movlw	low (_LogoBitMap| (0+32768))
  2169  034F  00F4               	movwf	GLCD_DisplayLogo@ptr_Logo
  2170  0350  3089               	movlw	high (_LogoBitMap| (0+32768))
  2171  0351  00F5               	movwf	GLCD_DisplayLogo@ptr_Logo+1
  2172  0352  120A  118A  206C  120A  118A  	fcall	_GLCD_DisplayLogo
  2173                           
  2174                           ;main.c: 16: DELAY_sec(3);
  2175  0357  3003               	movlw	3
  2176  0358  00F4               	movwf	DELAY_sec@sec_count
  2177  0359  3000               	movlw	0
  2178  035A  00F5               	movwf	DELAY_sec@sec_count+1
  2179  035B  120A  158A  2715  120A  118A  	fcall	_DELAY_sec
  2180                           
  2181                           ;main.c: 18: GLCD_Clear();
  2182  0360  120A  118A  201F  120A  118A  	fcall	_GLCD_Clear
  2183                           
  2184                           ;main.c: 19: GLCD_Printf("Dec:%d \nHex:%x \nBin:%b \nFloat:%f", num, num, num, 4567.89);
  2185  0365  30ED               	movlw	low (STR_1| (0+32768))
  2186  0366  1283               	bcf	3,5	;RP0=0, select bank0
  2187  0367  1303               	bcf	3,6	;RP1=0, select bank0
  2188  0368  00C8               	movwf	GLCD_Printf@argList
  2189  0369  308D               	movlw	high (STR_1| (0+32768))
  2190  036A  00C9               	movwf	GLCD_Printf@argList+1
  2191  036B  0869               	movf	main@num+1,w
  2192  036C  00CB               	movwf	?_GLCD_Printf+3
  2193  036D  0868               	movf	main@num,w
  2194  036E  00CA               	movwf	?_GLCD_Printf+2
  2195  036F  0869               	movf	main@num+1,w
  2196  0370  00CD               	movwf	?_GLCD_Printf+5
  2197  0371  0868               	movf	main@num,w
  2198  0372  00CC               	movwf	?_GLCD_Printf+4
  2199  0373  0869               	movf	main@num+1,w
  2200  0374  00CF               	movwf	?_GLCD_Printf+7
  2201  0375  0868               	movf	main@num,w
  2202  0376  00CE               	movwf	?_GLCD_Printf+6
  2203  0377  30BF               	movlw	191
  2204  0378  00D0               	movwf	?_GLCD_Printf+8
  2205  0379  308E               	movlw	142
  2206  037A  00D1               	movwf	?_GLCD_Printf+9
  2207  037B  3045               	movlw	69
  2208  037C  00D2               	movwf	?_GLCD_Printf+10
  2209  037D  120A  118A  25DC  120A  118A  	fcall	_GLCD_Printf
  2210                           
  2211                           ;main.c: 20: DELAY_sec(3);
  2212  0382  3003               	movlw	3
  2213  0383  00F4               	movwf	DELAY_sec@sec_count
  2214  0384  3000               	movlw	0
  2215  0385  00F5               	movwf	DELAY_sec@sec_count+1
  2216  0386  120A  158A  2715  120A  118A  	fcall	_DELAY_sec
  2217                           
  2218                           ;main.c: 22: GLCD_Clear();
  2219  038B  120A  118A  201F  120A  118A  	fcall	_GLCD_Clear
  2220                           
  2221                           ;main.c: 23: GLCD_HorizontalGraph(0, 45);
  2222  0390  302D               	movlw	45
  2223  0391  1283               	bcf	3,5	;RP0=0, select bank0
  2224  0392  1303               	bcf	3,6	;RP1=0, select bank0
  2225  0393  00E7               	movwf	??_main
  2226  0394  0867               	movf	??_main,w
  2227  0395  00C8               	movwf	GLCD_HorizontalGraph@var_percentageValue_u8
  2228  0396  3000               	movlw	0
  2229  0397  120A  118A  2231  120A  118A  	fcall	_GLCD_HorizontalGraph
  2230                           
  2231                           ;main.c: 24: GLCD_HorizontalGraph(1, 50);
  2232  039C  3032               	movlw	50
  2233  039D  1283               	bcf	3,5	;RP0=0, select bank0
  2234  039E  1303               	bcf	3,6	;RP1=0, select bank0
  2235  039F  00E7               	movwf	??_main
  2236  03A0  0867               	movf	??_main,w
  2237  03A1  00C8               	movwf	GLCD_HorizontalGraph@var_percentageValue_u8
  2238  03A2  3001               	movlw	1
  2239  03A3  120A  118A  2231  120A  118A  	fcall	_GLCD_HorizontalGraph
  2240                           
  2241                           ;main.c: 25: GLCD_HorizontalGraph(2, 82);
  2242  03A8  3052               	movlw	82
  2243  03A9  1283               	bcf	3,5	;RP0=0, select bank0
  2244  03AA  1303               	bcf	3,6	;RP1=0, select bank0
  2245  03AB  00E7               	movwf	??_main
  2246  03AC  0867               	movf	??_main,w
  2247  03AD  00C8               	movwf	GLCD_HorizontalGraph@var_percentageValue_u8
  2248  03AE  3002               	movlw	2
  2249  03AF  120A  118A  2231  120A  118A  	fcall	_GLCD_HorizontalGraph
  2250                           
  2251                           ;main.c: 26: GLCD_HorizontalGraph(3, 74);
  2252  03B4  304A               	movlw	74
  2253  03B5  1283               	bcf	3,5	;RP0=0, select bank0
  2254  03B6  1303               	bcf	3,6	;RP1=0, select bank0
  2255  03B7  00E7               	movwf	??_main
  2256  03B8  0867               	movf	??_main,w
  2257  03B9  00C8               	movwf	GLCD_HorizontalGraph@var_percentageValue_u8
  2258  03BA  3003               	movlw	3
  2259  03BB  120A  118A  2231  120A  118A  	fcall	_GLCD_HorizontalGraph
  2260                           
  2261                           ;main.c: 27: DELAY_sec(3);
  2262  03C0  3003               	movlw	3
  2263  03C1  00F4               	movwf	DELAY_sec@sec_count
  2264  03C2  3000               	movlw	0
  2265  03C3  00F5               	movwf	DELAY_sec@sec_count+1
  2266  03C4  120A  158A  2715  120A  118A  	fcall	_DELAY_sec
  2267                           
  2268                           ;main.c: 29: GLCD_Clear();
  2269  03C9  120A  118A  201F  120A  118A  	fcall	_GLCD_Clear
  2270                           
  2271                           ;main.c: 30: GLCD_VerticalGraph(0, 45);
  2272  03CE  302D               	movlw	45
  2273  03CF  1283               	bcf	3,5	;RP0=0, select bank0
  2274  03D0  1303               	bcf	3,6	;RP1=0, select bank0
  2275  03D1  00E7               	movwf	??_main
  2276  03D2  0867               	movf	??_main,w
  2277  03D3  00C8               	movwf	GLCD_VerticalGraph@var_percentageValue_u8
  2278  03D4  3000               	movlw	0
  2279  03D5  120A  118A  2408  120A  118A  	fcall	_GLCD_VerticalGraph
  2280                           
  2281                           ;main.c: 31: GLCD_VerticalGraph(1, 50);
  2282  03DA  3032               	movlw	50
  2283  03DB  1283               	bcf	3,5	;RP0=0, select bank0
  2284  03DC  1303               	bcf	3,6	;RP1=0, select bank0
  2285  03DD  00E7               	movwf	??_main
  2286  03DE  0867               	movf	??_main,w
  2287  03DF  00C8               	movwf	GLCD_VerticalGraph@var_percentageValue_u8
  2288  03E0  3001               	movlw	1
  2289  03E1  120A  118A  2408  120A  118A  	fcall	_GLCD_VerticalGraph
  2290                           
  2291                           ;main.c: 32: GLCD_VerticalGraph(2, 82);
  2292  03E6  3052               	movlw	82
  2293  03E7  1283               	bcf	3,5	;RP0=0, select bank0
  2294  03E8  1303               	bcf	3,6	;RP1=0, select bank0
  2295  03E9  00E7               	movwf	??_main
  2296  03EA  0867               	movf	??_main,w
  2297  03EB  00C8               	movwf	GLCD_VerticalGraph@var_percentageValue_u8
  2298  03EC  3002               	movlw	2
  2299  03ED  120A  118A  2408  120A  118A  	fcall	_GLCD_VerticalGraph
  2300                           
  2301                           ;main.c: 33: GLCD_VerticalGraph(3, 74);
  2302  03F2  304A               	movlw	74
  2303  03F3  1283               	bcf	3,5	;RP0=0, select bank0
  2304  03F4  1303               	bcf	3,6	;RP1=0, select bank0
  2305  03F5  00E7               	movwf	??_main
  2306  03F6  0867               	movf	??_main,w
  2307  03F7  00C8               	movwf	GLCD_VerticalGraph@var_percentageValue_u8
  2308  03F8  3003               	movlw	3
  2309  03F9  120A  118A  2408  120A  118A  	fcall	_GLCD_VerticalGraph
  2310                           
  2311                           ;main.c: 34: DELAY_sec(3);
  2312  03FE  3003               	movlw	3
  2313  03FF  00F4               	movwf	DELAY_sec@sec_count
  2314  0400  3000               	movlw	0
  2315  0401  00F5               	movwf	DELAY_sec@sec_count+1
  2316  0402  120A  158A  2715  120A  118A  	fcall	_DELAY_sec
  2317  0407  2B49               	goto	l2031
  2318  0408                     __end_of_main:	
  2319                           
  2320                           	psect	text1
  2321  0408                     __ptext1:	
  2322 ;; *************** function _GLCD_VerticalGraph *****************
  2323 ;; Defined at:
  2324 ;;		line 901 in file "../00-libfiles/glcd.c"
  2325 ;; Parameters:    Size  Location     Type
  2326 ;;  var_barGraph    1    wreg     unsigned char 
  2327 ;;  var_percenta    1   40[BANK0 ] unsigned char 
  2328 ;; Auto vars:     Size  Location     Type
  2329 ;;  var_barGraph    1   47[BANK0 ] unsigned char 
  2330 ;;  i               1   52[BANK0 ] unsigned char 
  2331 ;;  var_valueToD    1   51[BANK0 ] unsigned char 
  2332 ;;  j               1   50[BANK0 ] unsigned char 
  2333 ;;  lineNumber      1   49[BANK0 ] unsigned char 
  2334 ;;  var_barGraph    1   48[BANK0 ] unsigned char 
  2335 ;;  var_lineNumb    1   46[BANK0 ] unsigned char 
  2336 ;; Return value:  Size  Location     Type
  2337 ;;                  1    wreg      void 
  2338 ;; Registers used:
  2339 ;;		wreg, fsr0l, fsr0h, status,2, status,0, btemp+1, pclath, cstack
  2340 ;; Tracked objects:
  2341 ;;		On entry : 0/0
  2342 ;;		On exit  : 0/0
  2343 ;;		Unchanged: 0/0
  2344 ;; Data sizes:     COMMON   BANK0   BANK1   BANK3   BANK2
  2345 ;;      Params:         0       1       0       0       0
  2346 ;;      Locals:         0       7       0       0       0
  2347 ;;      Temps:          0       5       0       0       0
  2348 ;;      Totals:         0      13       0       0       0
  2349 ;;Total ram usage:       13 bytes
  2350 ;; Hardware stack levels used:    1
  2351 ;; Hardware stack levels required when called:    7
  2352 ;; This function calls:
  2353 ;;		_GLCD_DisplayNumber
  2354 ;;		_GLCD_SetCursor
  2355 ;;		___awdiv
  2356 ;;		_glcd_DataWrite
  2357 ;; This function is called by:
  2358 ;;		_main
  2359 ;; This function uses a non-reentrant model
  2360 ;;
  2361                           
  2362                           
  2363                           ;psect for function _GLCD_VerticalGraph
  2364  0408                     _GLCD_VerticalGraph:	
  2365                           
  2366                           ;incstack = 0
  2367                           ; Regs used in _GLCD_VerticalGraph: [wreg-fsr0h+status,2+status,0+btemp+1+pclath+cstack]
  2368                           ;GLCD_VerticalGraph@var_barGraphNumber_u8 stored from wreg
  2369  0408  1283               	bcf	3,5	;RP0=0, select bank0
  2370  0409  1303               	bcf	3,6	;RP1=0, select bank0
  2371  040A  00CF               	movwf	GLCD_VerticalGraph@var_barGraphNumber_u8
  2372                           
  2373                           ;glcd.c: 903: uint8_t var_lineNumberToStartDisplay_u8,i,j,var_barGraphPosition_u8;
  2374                           ;glcd.c: 904: uint8_t lineNumber,var_valueToDisplay_u8;
  2375                           ;glcd.c: 907: if((var_barGraphNumber_u8 < 4) && (var_percentageValue_u8<=100))
  2376  040B  3004               	movlw	4
  2377  040C  024F               	subwf	GLCD_VerticalGraph@var_barGraphNumber_u8,w
  2378  040D  1803               	skipnc
  2379  040E  0008               	return
  2380  040F  3065               	movlw	101
  2381  0410  0248               	subwf	GLCD_VerticalGraph@var_percentageValue_u8,w
  2382  0411  1803               	skipnc
  2383  0412  0008               	return
  2384                           
  2385                           ;glcd.c: 908: {
  2386                           ;glcd.c: 909: var_barGraphPosition_u8 = var_barGraphNumber_u8 * 32;
  2387  0413  084F               	movf	GLCD_VerticalGraph@var_barGraphNumber_u8,w
  2388  0414  00C9               	movwf	??_GLCD_VerticalGraph
  2389  0415  3004               	movlw	4
  2390  0416                     u1995:	
  2391  0416  1003               	clrc
  2392  0417  0DC9               	rlf	??_GLCD_VerticalGraph,f
  2393  0418  3EFF               	addlw	-1
  2394  0419  1D03               	skipz
  2395  041A  2C16               	goto	u1995
  2396  041B  1003               	clrc
  2397  041C  0D49               	rlf	??_GLCD_VerticalGraph,w
  2398  041D  00CA               	movwf	??_GLCD_VerticalGraph+1
  2399  041E  084A               	movf	??_GLCD_VerticalGraph+1,w
  2400  041F  00D0               	movwf	GLCD_VerticalGraph@var_barGraphPosition_u8
  2401                           
  2402                           ;glcd.c: 911: GLCD_SetCursor(0,var_barGraphPosition_u8+8);
  2403  0420  0850               	movf	GLCD_VerticalGraph@var_barGraphPosition_u8,w
  2404  0421  3E08               	addlw	8
  2405  0422  00C9               	movwf	??_GLCD_VerticalGraph
  2406  0423  0849               	movf	??_GLCD_VerticalGraph,w
  2407  0424  00F9               	movwf	GLCD_SetCursor@CursorPosition
  2408  0425  3000               	movlw	0
  2409  0426  120A  118A  21CF  120A  118A  	fcall	_GLCD_SetCursor
  2410                           
  2411                           ;glcd.c: 912: GLCD_DisplayNumber(E_DECIMAL,var_percentageValue_u8,3);
  2412  042B  1283               	bcf	3,5	;RP0=0, select bank0
  2413  042C  1303               	bcf	3,6	;RP1=0, select bank0
  2414  042D  0848               	movf	GLCD_VerticalGraph@var_percentageValue_u8,w
  2415  042E  00C9               	movwf	??_GLCD_VerticalGraph
  2416  042F  01CA               	clrf	??_GLCD_VerticalGraph+1
  2417  0430  01CB               	clrf	??_GLCD_VerticalGraph+2
  2418  0431  01CC               	clrf	??_GLCD_VerticalGraph+3
  2419  0432  084C               	movf	??_GLCD_VerticalGraph+3,w
  2420  0433  00AC               	movwf	GLCD_DisplayNumber@v_number_u32+3
  2421  0434  084B               	movf	??_GLCD_VerticalGraph+2,w
  2422  0435  00AB               	movwf	GLCD_DisplayNumber@v_number_u32+2
  2423  0436  084A               	movf	??_GLCD_VerticalGraph+1,w
  2424  0437  00AA               	movwf	GLCD_DisplayNumber@v_number_u32+1
  2425  0438  0849               	movf	??_GLCD_VerticalGraph,w
  2426  0439  00A9               	movwf	GLCD_DisplayNumber@v_number_u32
  2427  043A  3003               	movlw	3
  2428  043B  00CD               	movwf	??_GLCD_VerticalGraph+4
  2429  043C  084D               	movf	??_GLCD_VerticalGraph+4,w
  2430  043D  00AD               	movwf	GLCD_DisplayNumber@v_numOfDigitsToDisplay_u8
  2431  043E  300A               	movlw	10
  2432  043F  120A  118A  24DB  120A  118A  	fcall	_GLCD_DisplayNumber
  2433                           
  2434                           ;glcd.c: 916: var_percentageValue_u8 = var_percentageValue_u8/2;
  2435  0444  3002               	movlw	2
  2436  0445  00F0               	movwf	___awdiv@divisor
  2437  0446  3000               	movlw	0
  2438  0447  00F1               	movwf	___awdiv@divisor+1
  2439  0448  1283               	bcf	3,5	;RP0=0, select bank0
  2440  0449  1303               	bcf	3,6	;RP1=0, select bank0
  2441  044A  0848               	movf	GLCD_VerticalGraph@var_percentageValue_u8,w
  2442  044B  00C9               	movwf	??_GLCD_VerticalGraph
  2443  044C  01CA               	clrf	??_GLCD_VerticalGraph+1
  2444  044D  0849               	movf	??_GLCD_VerticalGraph,w
  2445  044E  00F2               	movwf	___awdiv@dividend
  2446  044F  084A               	movf	??_GLCD_VerticalGraph+1,w
  2447  0450  00F3               	movwf	___awdiv@dividend+1
  2448  0451  120A  118A  2118  120A  118A  	fcall	___awdiv
  2449  0456  0870               	movf	?___awdiv,w
  2450  0457  1283               	bcf	3,5	;RP0=0, select bank0
  2451  0458  1303               	bcf	3,6	;RP1=0, select bank0
  2452  0459  00CB               	movwf	??_GLCD_VerticalGraph+2
  2453  045A  084B               	movf	??_GLCD_VerticalGraph+2,w
  2454  045B  00C8               	movwf	GLCD_VerticalGraph@var_percentageValue_u8
  2455                           
  2456                           ;glcd.c: 917: var_lineNumberToStartDisplay_u8 = (var_percentageValue_u8>>3);
  2457  045C  0848               	movf	GLCD_VerticalGraph@var_percentageValue_u8,w
  2458  045D  00C9               	movwf	??_GLCD_VerticalGraph
  2459  045E  3003               	movlw	3
  2460  045F                     u2005:	
  2461  045F  1003               	clrc
  2462  0460  0CC9               	rrf	??_GLCD_VerticalGraph,f
  2463  0461  3EFF               	addlw	-1
  2464  0462  1D03               	skipz
  2465  0463  2C5F               	goto	u2005
  2466  0464  0849               	movf	??_GLCD_VerticalGraph,w
  2467  0465  00CA               	movwf	??_GLCD_VerticalGraph+1
  2468  0466  084A               	movf	??_GLCD_VerticalGraph+1,w
  2469  0467  00CE               	movwf	GLCD_VerticalGraph@var_lineNumberToStartDisplay_u8
  2470                           
  2471                           ;glcd.c: 918: lineNumber = 7-var_lineNumberToStartDisplay_u8;
  2472  0468  034E               	decf	GLCD_VerticalGraph@var_lineNumberToStartDisplay_u8,w
  2473  0469  3AFF               	xorlw	255
  2474  046A  3E07               	addlw	7
  2475  046B  00C9               	movwf	??_GLCD_VerticalGraph
  2476  046C  0849               	movf	??_GLCD_VerticalGraph,w
  2477  046D  00D1               	movwf	GLCD_VerticalGraph@lineNumber
  2478                           
  2479                           ;glcd.c: 921: for(i=1;i<8;i++)
  2480  046E  01D4               	clrf	GLCD_VerticalGraph@i
  2481  046F  0AD4               	incf	GLCD_VerticalGraph@i,f
  2482  0470                     L2:	
  2483  0470  3008               	movlw	8
  2484  0471  0254               	subwf	GLCD_VerticalGraph@i,w
  2485  0472  1803               	btfsc	3,0
  2486  0473  0008               	return
  2487                           
  2488                           ;glcd.c: 922: {
  2489                           ;glcd.c: 923: GLCD_SetCursor(i,(var_barGraphPosition_u8+12));
  2490  0474  0850               	movf	GLCD_VerticalGraph@var_barGraphPosition_u8,w
  2491  0475  3E0C               	addlw	12
  2492  0476  00C9               	movwf	??_GLCD_VerticalGraph
  2493  0477  0849               	movf	??_GLCD_VerticalGraph,w
  2494  0478  00F9               	movwf	GLCD_SetCursor@CursorPosition
  2495  0479  0854               	movf	GLCD_VerticalGraph@i,w
  2496  047A  120A  118A  21CF  120A  118A  	fcall	_GLCD_SetCursor
  2497                           
  2498                           ;glcd.c: 924: if(i<lineNumber)
  2499  047F  1283               	bcf	3,5	;RP0=0, select bank0
  2500  0480  1303               	bcf	3,6	;RP1=0, select bank0
  2501  0481  0851               	movf	GLCD_VerticalGraph@lineNumber,w
  2502  0482  0254               	subwf	GLCD_VerticalGraph@i,w
  2503  0483  1803               	skipnc
  2504  0484  2C87               	goto	l2003
  2505                           
  2506                           ;glcd.c: 925: {
  2507                           ;glcd.c: 926: var_valueToDisplay_u8 = 0x00;
  2508  0485  01D3               	clrf	GLCD_VerticalGraph@var_valueToDisplay_u8
  2509                           
  2510                           ;glcd.c: 927: }
  2511  0486  2CC1               	goto	l2011
  2512  0487                     l2003:	
  2513                           
  2514                           ;glcd.c: 928: else if(i== lineNumber)
  2515  0487  0854               	movf	GLCD_VerticalGraph@i,w
  2516  0488  0651               	xorwf	GLCD_VerticalGraph@lineNumber,w
  2517  0489  1D03               	skipz
  2518  048A  2CBD               	goto	l2009
  2519                           
  2520                           ;glcd.c: 929: {
  2521                           ;glcd.c: 930: var_valueToDisplay_u8 = (uint8_t) (var_percentageValue_u8 - (8 * (uint8_t)
      +                           (var_percentageValue_u8/8)));
  2522  048B  3008               	movlw	8
  2523  048C  00F0               	movwf	___awdiv@divisor
  2524  048D  3000               	movlw	0
  2525  048E  00F1               	movwf	___awdiv@divisor+1
  2526  048F  0848               	movf	GLCD_VerticalGraph@var_percentageValue_u8,w
  2527  0490  00C9               	movwf	??_GLCD_VerticalGraph
  2528  0491  01CA               	clrf	??_GLCD_VerticalGraph+1
  2529  0492  0849               	movf	??_GLCD_VerticalGraph,w
  2530  0493  00F2               	movwf	___awdiv@dividend
  2531  0494  084A               	movf	??_GLCD_VerticalGraph+1,w
  2532  0495  00F3               	movwf	___awdiv@dividend+1
  2533  0496  120A  118A  2118  120A  118A  	fcall	___awdiv
  2534  049B  0870               	movf	?___awdiv,w
  2535  049C  1283               	bcf	3,5	;RP0=0, select bank0
  2536  049D  1303               	bcf	3,6	;RP1=0, select bank0
  2537  049E  00CB               	movwf	??_GLCD_VerticalGraph+2
  2538  049F  3002               	movlw	2
  2539  04A0                     u2045:	
  2540  04A0  1003               	clrc
  2541  04A1  0DCB               	rlf	??_GLCD_VerticalGraph+2,f
  2542  04A2  3EFF               	addlw	-1
  2543  04A3  1D03               	skipz
  2544  04A4  2CA0               	goto	u2045
  2545  04A5  1003               	clrc
  2546  04A6  0D4B               	rlf	??_GLCD_VerticalGraph+2,w
  2547  04A7  3AFF               	xorlw	255
  2548  04A8  3E01               	addlw	1
  2549  04A9  0748               	addwf	GLCD_VerticalGraph@var_percentageValue_u8,w
  2550  04AA  00CC               	movwf	??_GLCD_VerticalGraph+3
  2551  04AB  084C               	movf	??_GLCD_VerticalGraph+3,w
  2552  04AC  00D3               	movwf	GLCD_VerticalGraph@var_valueToDisplay_u8
  2553                           
  2554                           ;glcd.c: 931: var_valueToDisplay_u8 = (0xff<<(8-var_valueToDisplay_u8));
  2555  04AD  30FF               	movlw	255
  2556  04AE  00C9               	movwf	??_GLCD_VerticalGraph
  2557  04AF  0353               	decf	GLCD_VerticalGraph@var_valueToDisplay_u8,w
  2558  04B0  3AFF               	xorlw	255
  2559  04B1  3E08               	addlw	8
  2560  04B2  3E01               	addlw	1
  2561  04B3  2CB6               	goto	u2054
  2562  04B4                     u2055:	
  2563  04B4  1003               	clrc
  2564  04B5  0DC9               	rlf	??_GLCD_VerticalGraph,f
  2565  04B6                     u2054:	
  2566  04B6  3EFF               	addlw	-1
  2567  04B7  1D03               	skipz
  2568  04B8  2CB4               	goto	u2055
  2569  04B9  0849               	movf	??_GLCD_VerticalGraph,w
  2570  04BA  00CA               	movwf	??_GLCD_VerticalGraph+1
  2571  04BB  084A               	movf	??_GLCD_VerticalGraph+1,w
  2572  04BC  2CC0               	goto	L1
  2573  04BD                     l2009:	
  2574                           ;glcd.c: 932: }
  2575                           
  2576                           
  2577                           ;glcd.c: 933: else
  2578                           ;glcd.c: 934: {
  2579                           ;glcd.c: 935: var_valueToDisplay_u8 = 0xff;
  2580  04BD  30FF               	movlw	255
  2581  04BE  00C9               	movwf	??_GLCD_VerticalGraph
  2582  04BF  0849               	movf	??_GLCD_VerticalGraph,w
  2583  04C0                     L1:	
  2584  04C0  00D3               	movwf	GLCD_VerticalGraph@var_valueToDisplay_u8
  2585  04C1                     l2011:	
  2586                           
  2587                           ;glcd.c: 936: }
  2588                           ;glcd.c: 938: for(j=0;j<12;j++)
  2589  04C1  01D2               	clrf	GLCD_VerticalGraph@j
  2590  04C2  300C               	movlw	12
  2591  04C3  0252               	subwf	GLCD_VerticalGraph@j,w
  2592  04C4  1803               	btfsc	3,0
  2593  04C5  2CD6               	goto	l2023
  2594  04C6                     l2017:	
  2595                           
  2596                           ;glcd.c: 939: {
  2597                           ;glcd.c: 940: glcd_DataWrite(var_valueToDisplay_u8);
  2598  04C6  0853               	movf	GLCD_VerticalGraph@var_valueToDisplay_u8,w
  2599  04C7  120A  158A  2729  120A  118A  	fcall	_glcd_DataWrite
  2600  04CC  3001               	movlw	1
  2601  04CD  1283               	bcf	3,5	;RP0=0, select bank0
  2602  04CE  1303               	bcf	3,6	;RP1=0, select bank0
  2603  04CF  00C9               	movwf	??_GLCD_VerticalGraph
  2604  04D0  0849               	movf	??_GLCD_VerticalGraph,w
  2605  04D1  07D2               	addwf	GLCD_VerticalGraph@j,f
  2606  04D2  300C               	movlw	12
  2607  04D3  0252               	subwf	GLCD_VerticalGraph@j,w
  2608  04D4  1C03               	skipc
  2609  04D5  2CC6               	goto	l2017
  2610  04D6                     l2023:	
  2611  04D6  3001               	movlw	1
  2612  04D7  00C9               	movwf	??_GLCD_VerticalGraph
  2613  04D8  0849               	movf	??_GLCD_VerticalGraph,w
  2614  04D9  07D4               	addwf	GLCD_VerticalGraph@i,f
  2615  04DA  2C70               	goto	L2
  2616  04DB                     __end_of_GLCD_VerticalGraph:	
  2617                           
  2618                           	psect	text2
  2619  05DC                     __ptext2:	
  2620 ;; *************** function _GLCD_Printf *****************
  2621 ;; Defined at:
  2622 ;;		line 538 in file "../00-libfiles/glcd.c"
  2623 ;; Parameters:    Size  Location     Type
  2624 ;;  argList         2   40[BANK0 ] PTR const unsigned char 
  2625 ;;		 -> STR_1(33), 
  2626 ;; Auto vars:     Size  Location     Type
  2627 ;;  v_num_u32       4   60[BANK0 ] unsigned long 
  2628 ;;  v_num_s32       4   54[BANK0 ] long 
  2629 ;;  ptr             2   66[BANK0 ] PTR const unsigned char 
  2630 ;;		 -> STR_1(33), 
  2631 ;;  v_num_u16       2   64[BANK0 ] unsigned int 
  2632 ;;  v_num_s16       2   58[BANK0 ] int 
  2633 ;;  argp            1   70[BANK0 ] PTR void [1]
  2634 ;;		 -> ?_GLCD_Printf(1), 
  2635 ;;  v_numOfDigit    1   69[BANK0 ] unsigned char 
  2636 ;;  ch              1   68[BANK0 ] unsigned char 
  2637 ;;  str             1   53[BANK0 ] PTR unsigned char 
  2638 ;; Return value:  Size  Location     Type
  2639 ;;                  1    wreg      void 
  2640 ;; Registers used:
  2641 ;;		wreg, fsr0l, fsr0h, status,2, status,0, btemp+1, pclath, cstack
  2642 ;; Tracked objects:
  2643 ;;		On entry : 0/0
  2644 ;;		On exit  : 0/0
  2645 ;;		Unchanged: 0/0
  2646 ;; Data sizes:     COMMON   BANK0   BANK1   BANK3   BANK2
  2647 ;;      Params:         0      11       0       0       0
  2648 ;;      Locals:         0      18       0       0       0
  2649 ;;      Temps:          0       2       0       0       0
  2650 ;;      Totals:         0      31       0       0       0
  2651 ;;Total ram usage:       31 bytes
  2652 ;; Hardware stack levels used:    1
  2653 ;; Hardware stack levels required when called:    7
  2654 ;; This function calls:
  2655 ;;		_GLCD_DisplayChar
  2656 ;;		_GLCD_DisplayNumber
  2657 ;;		_GLCD_DisplayString
  2658 ;;		___bmul
  2659 ;; This function is called by:
  2660 ;;		_main
  2661 ;; This function uses a non-reentrant model
  2662 ;;
  2663                           
  2664                           
  2665                           ;psect for function _GLCD_Printf
  2666  05DC                     _GLCD_Printf:	
  2667                           
  2668                           ;glcd.c: 540: const char *ptr;
  2669                           ;glcd.c: 541: va_list argp;
  2670                           ;glcd.c: 542: sint16_t v_num_s16;
  2671                           ;glcd.c: 543: sint32_t v_num_s32;
  2672                           ;glcd.c: 544: uint16_t v_num_u16;
  2673                           ;glcd.c: 545: uint32_t v_num_u32;
  2674                           ;glcd.c: 546: char *str;
  2675                           ;glcd.c: 547: char ch;
  2676                           ;glcd.c: 548: uint8_t v_numOfDigitsToDisp_u8;
  2677                           ;glcd.c: 553: *argp = __va_start();
  2678                           
  2679                           ;incstack = 0
  2680 ;; using string table level
  2681                           ; Regs used in _GLCD_Printf: [wreg-fsr0h+status,2+status,0+btemp+1+pclath+cstack]
  2682  05DC  304A               	movlw	(low ((?_GLCD_Printf| 0+2)))& (0+255)
  2683  05DD  1283               	bcf	3,5	;RP0=0, select bank0
  2684  05DE  1303               	bcf	3,6	;RP1=0, select bank0
  2685  05DF  00D3               	movwf	??_GLCD_Printf
  2686  05E0  0853               	movf	??_GLCD_Printf,w
  2687  05E1  00E6               	movwf	GLCD_Printf@argp
  2688                           
  2689                           ;glcd.c: 556: for(ptr = argList; *ptr != '\0'; ptr++)
  2690  05E2  0848               	movf	GLCD_Printf@argList,w
  2691  05E3  00E2               	movwf	GLCD_Printf@ptr
  2692  05E4  0849               	movf	GLCD_Printf@argList+1,w
  2693  05E5  00E3               	movwf	GLCD_Printf@ptr+1
  2694  05E6                     l1939:	
  2695  05E6  0863               	movf	GLCD_Printf@ptr+1,w
  2696  05E7  00FF               	movwf	127
  2697  05E8  0862               	movf	GLCD_Printf@ptr,w
  2698  05E9  0084               	movwf	4
  2699  05EA  120A  158A  2000  120A  118A  	fcall	stringtab
  2700  05EF  3A00               	xorlw	0
  2701  05F0  1903               	btfsc	3,2
  2702  05F1  0008               	return
  2703                           
  2704                           ;glcd.c: 557: {
  2705                           ;glcd.c: 559: ch= *ptr;
  2706  05F2  0863               	movf	GLCD_Printf@ptr+1,w
  2707  05F3  00FF               	movwf	127
  2708  05F4  0862               	movf	GLCD_Printf@ptr,w
  2709  05F5  0084               	movwf	4
  2710  05F6  120A  158A  2000  120A  118A  	fcall	stringtab
  2711  05FB  00D3               	movwf	??_GLCD_Printf
  2712  05FC  0853               	movf	??_GLCD_Printf,w
  2713  05FD  00E4               	movwf	GLCD_Printf@ch
  2714                           
  2715                           ;glcd.c: 560: if(ch == '%')
  2716  05FE  3025               	movlw	37
  2717  05FF  0664               	xorwf	GLCD_Printf@ch,w
  2718  0600  1D03               	btfss	3,2
  2719  0601  2FEB               	goto	l1935
  2720                           
  2721                           ;glcd.c: 561: {
  2722                           ;glcd.c: 562: ptr++;
  2723  0602  3001               	movlw	1
  2724  0603  07E2               	addwf	GLCD_Printf@ptr,f
  2725  0604  1803               	skipnc
  2726  0605  0AE3               	incf	GLCD_Printf@ptr+1,f
  2727                           
  2728                           ;glcd.c: 563: ch = *ptr;
  2729  0606  0863               	movf	GLCD_Printf@ptr+1,w
  2730  0607  00FF               	movwf	127
  2731  0608  0862               	movf	GLCD_Printf@ptr,w
  2732  0609  0084               	movwf	4
  2733  060A  120A  158A  2000  120A  118A  	fcall	stringtab
  2734  060F  00D3               	movwf	??_GLCD_Printf
  2735  0610  0853               	movf	??_GLCD_Printf,w
  2736  0611  00E4               	movwf	GLCD_Printf@ch
  2737                           
  2738                           ;glcd.c: 564: if((ch>=0x30) && (ch<=0x39))
  2739  0612  3030               	movlw	48
  2740  0613  0264               	subwf	GLCD_Printf@ch,w
  2741  0614  1C03               	skipc
  2742  0615  2E45               	goto	l1849
  2743  0616  303A               	movlw	58
  2744  0617  0264               	subwf	GLCD_Printf@ch,w
  2745  0618  1803               	skipnc
  2746  0619  2E45               	goto	l1849
  2747                           
  2748                           ;glcd.c: 565: {
  2749                           ;glcd.c: 566: v_numOfDigitsToDisp_u8 = 0;
  2750  061A  01E5               	clrf	GLCD_Printf@v_numOfDigitsToDisp_u8
  2751  061B                     l1845:	
  2752                           ;glcd.c: 567: while((ch>=0x30) && (ch<=0x39))
  2753                           
  2754  061B  3030               	movlw	48
  2755  061C  0264               	subwf	GLCD_Printf@ch,w
  2756  061D  1C03               	skipc
  2757  061E  2FB9               	goto	l1933
  2758  061F  303A               	movlw	58
  2759  0620  0264               	subwf	GLCD_Printf@ch,w
  2760  0621  1803               	btfsc	3,0
  2761  0622  2FB9               	goto	l1933
  2762                           
  2763                           ;glcd.c: 568: {
  2764                           ;glcd.c: 569: v_numOfDigitsToDisp_u8 = (v_numOfDigitsToDisp_u8 * 10) + (ch-0x30);
  2765  0623  300A               	movlw	10
  2766  0624  00D3               	movwf	??_GLCD_Printf
  2767  0625  0853               	movf	??_GLCD_Printf,w
  2768  0626  00A0               	movwf	___bmul@multiplicand
  2769  0627  0865               	movf	GLCD_Printf@v_numOfDigitsToDisp_u8,w
  2770  0628  120A  158A  26EE  120A  118A  	fcall	___bmul
  2771  062D  1283               	bcf	3,5	;RP0=0, select bank0
  2772  062E  1303               	bcf	3,6	;RP1=0, select bank0
  2773  062F  0764               	addwf	GLCD_Printf@ch,w
  2774  0630  3ED0               	addlw	208
  2775  0631  00D4               	movwf	??_GLCD_Printf+1
  2776  0632  0854               	movf	??_GLCD_Printf+1,w
  2777  0633  00E5               	movwf	GLCD_Printf@v_numOfDigitsToDisp_u8
  2778                           
  2779                           ;glcd.c: 570: ptr++;
  2780  0634  3001               	movlw	1
  2781  0635  07E2               	addwf	GLCD_Printf@ptr,f
  2782  0636  1803               	skipnc
  2783  0637  0AE3               	incf	GLCD_Printf@ptr+1,f
  2784                           
  2785                           ;glcd.c: 571: ch = *ptr;
  2786  0638  0863               	movf	GLCD_Printf@ptr+1,w
  2787  0639  00FF               	movwf	127
  2788  063A  0862               	movf	GLCD_Printf@ptr,w
  2789  063B  0084               	movwf	4
  2790  063C  120A  158A  2000  120A  118A  	fcall	stringtab
  2791  0641  00D3               	movwf	??_GLCD_Printf
  2792  0642  0853               	movf	??_GLCD_Printf,w
  2793  0643  00E4               	movwf	GLCD_Printf@ch
  2794  0644  2E1B               	goto	l1845
  2795  0645                     l1849:	
  2796                           ;glcd.c: 572: }
  2797                           ;glcd.c: 573: }
  2798                           
  2799                           
  2800                           ;glcd.c: 574: else
  2801                           ;glcd.c: 575: {
  2802                           ;glcd.c: 576: v_numOfDigitsToDisp_u8 = 0xffu;
  2803  0645  30FF               	movlw	255
  2804  0646  00D3               	movwf	??_GLCD_Printf
  2805  0647  0853               	movf	??_GLCD_Printf,w
  2806  0648  00E5               	movwf	GLCD_Printf@v_numOfDigitsToDisp_u8
  2807                           
  2808                           ;glcd.c: 577: }
  2809                           ;glcd.c: 580: switch(ch)
  2810  0649  2FB9               	goto	l1933
  2811  064A                     l1851:	
  2812                           ;glcd.c: 581: {
  2813                           ;glcd.c: 582: case 'C':
  2814                           
  2815                           
  2816                           ;glcd.c: 583: case 'c':
  2817                           ;glcd.c: 584: ch = (*(int *)__va_arg((*(int **)argp), (int)0));
  2818  064A  0866               	movf	GLCD_Printf@argp,w
  2819  064B  0084               	movwf	4
  2820  064C  1383               	bcf	3,7	;select IRP bank0
  2821  064D  0800               	movf	0,w
  2822  064E  00D3               	movwf	??_GLCD_Printf
  2823  064F  0853               	movf	??_GLCD_Printf,w
  2824  0650  00E4               	movwf	GLCD_Printf@ch
  2825  0651  3002               	movlw	2
  2826  0652  00D3               	movwf	??_GLCD_Printf
  2827  0653  0853               	movf	??_GLCD_Printf,w
  2828  0654  07E6               	addwf	GLCD_Printf@argp,f
  2829  0655  2FEB               	goto	l1935
  2830  0656                     l1857:	
  2831                           ;glcd.c: 588: case 'd':
  2832                           
  2833                           ;glcd.c: 586: break;
  2834                           
  2835                           ;glcd.c: 585: GLCD_DisplayChar(ch);
  2836                           
  2837                           
  2838                           ;glcd.c: 589: v_num_s16 = (*(int *)__va_arg((*(int **)argp), (int)0));
  2839  0656  1283               	bcf	3,5	;RP0=0, select bank0
  2840  0657  1303               	bcf	3,6	;RP1=0, select bank0
  2841  0658  0866               	movf	GLCD_Printf@argp,w
  2842  0659  0084               	movwf	4
  2843  065A  1383               	bcf	3,7	;select IRP bank0
  2844  065B  0800               	movf	0,w
  2845  065C  00DA               	movwf	GLCD_Printf@v_num_s16
  2846  065D  0A84               	incf	4,f
  2847  065E  0800               	movf	0,w
  2848  065F  00DB               	movwf	GLCD_Printf@v_num_s16+1
  2849  0660  3002               	movlw	2
  2850  0661  00D3               	movwf	??_GLCD_Printf
  2851  0662  0853               	movf	??_GLCD_Printf,w
  2852  0663  07E6               	addwf	GLCD_Printf@argp,f
  2853                           
  2854                           ;glcd.c: 590: if(v_num_s16<0)
  2855  0664  1FDB               	btfss	GLCD_Printf@v_num_s16+1,7
  2856  0665  2E71               	goto	l1867
  2857                           
  2858                           ;glcd.c: 591: {
  2859                           ;glcd.c: 592: v_num_s16 = -v_num_s16;
  2860  0666  09DA               	comf	GLCD_Printf@v_num_s16,f
  2861  0667  09DB               	comf	GLCD_Printf@v_num_s16+1,f
  2862  0668  0ADA               	incf	GLCD_Printf@v_num_s16,f
  2863  0669  1903               	skipnz
  2864  066A  0ADB               	incf	GLCD_Printf@v_num_s16+1,f
  2865                           
  2866                           ;glcd.c: 593: GLCD_DisplayChar('-');
  2867  066B  302D               	movlw	45
  2868  066C  120A  118A  22B2  120A  118A  	fcall	_GLCD_DisplayChar
  2869  0671                     l1867:	
  2870                           
  2871                           ;glcd.c: 594: }
  2872                           ;glcd.c: 595: GLCD_DisplayNumber(10u,v_num_s16,v_numOfDigitsToDisp_u8);
  2873  0671  1283               	bcf	3,5	;RP0=0, select bank0
  2874  0672  1303               	bcf	3,6	;RP1=0, select bank0
  2875  0673  085A               	movf	GLCD_Printf@v_num_s16,w
  2876  0674  00A9               	movwf	GLCD_DisplayNumber@v_number_u32
  2877  0675  085B               	movf	GLCD_Printf@v_num_s16+1,w
  2878  0676  00AA               	movwf	GLCD_DisplayNumber@v_number_u32+1
  2879  0677  3000               	movlw	0
  2880  0678  1BAA               	btfsc	GLCD_DisplayNumber@v_number_u32+1,7
  2881  0679  30FF               	movlw	255
  2882  067A  00AB               	movwf	GLCD_DisplayNumber@v_number_u32+2
  2883  067B  00AC               	movwf	GLCD_DisplayNumber@v_number_u32+3
  2884  067C  0865               	movf	GLCD_Printf@v_numOfDigitsToDisp_u8,w
  2885  067D  00D3               	movwf	??_GLCD_Printf
  2886  067E  0853               	movf	??_GLCD_Printf,w
  2887  067F  00AD               	movwf	GLCD_DisplayNumber@v_numOfDigitsToDisplay_u8
  2888  0680  300A               	movlw	10
  2889  0681  120A  118A  24DB  120A  118A  	fcall	_GLCD_DisplayNumber
  2890                           
  2891                           ;glcd.c: 596: break;
  2892  0686  2FF1               	goto	l1937
  2893  0687                     l1869:	
  2894                           ;glcd.c: 598: case 'D':
  2895                           
  2896                           
  2897                           ;glcd.c: 599: v_num_s32 = (*(sint32_t *)__va_arg((*(sint32_t **)argp), (sint32_t)0));
  2898  0687  1283               	bcf	3,5	;RP0=0, select bank0
  2899  0688  1303               	bcf	3,6	;RP1=0, select bank0
  2900  0689  0866               	movf	GLCD_Printf@argp,w
  2901  068A  0084               	movwf	4
  2902  068B  1383               	bcf	3,7	;select IRP bank0
  2903  068C  0800               	movf	0,w
  2904  068D  00D6               	movwf	GLCD_Printf@v_num_s32
  2905  068E  0A84               	incf	4,f
  2906  068F  0800               	movf	0,w
  2907  0690  00D7               	movwf	GLCD_Printf@v_num_s32+1
  2908  0691  0A84               	incf	4,f
  2909  0692  0800               	movf	0,w
  2910  0693  00D8               	movwf	GLCD_Printf@v_num_s32+2
  2911  0694  0A84               	incf	4,f
  2912  0695  0800               	movf	0,w
  2913  0696  00D9               	movwf	GLCD_Printf@v_num_s32+3
  2914  0697  3004               	movlw	4
  2915  0698  00D3               	movwf	??_GLCD_Printf
  2916  0699  0853               	movf	??_GLCD_Printf,w
  2917  069A  07E6               	addwf	GLCD_Printf@argp,f
  2918                           
  2919                           ;glcd.c: 600: if(v_num_s32<0)
  2920  069B  1FD9               	btfss	GLCD_Printf@v_num_s32+3,7
  2921  069C  2EAE               	goto	l152
  2922                           
  2923                           ;glcd.c: 601: {
  2924                           ;glcd.c: 602: v_num_s32 = -v_num_s32;
  2925  069D  09D6               	comf	GLCD_Printf@v_num_s32,f
  2926  069E  09D7               	comf	GLCD_Printf@v_num_s32+1,f
  2927  069F  09D8               	comf	GLCD_Printf@v_num_s32+2,f
  2928  06A0  09D9               	comf	GLCD_Printf@v_num_s32+3,f
  2929  06A1  0AD6               	incf	GLCD_Printf@v_num_s32,f
  2930  06A2  1903               	skipnz
  2931  06A3  0AD7               	incf	GLCD_Printf@v_num_s32+1,f
  2932  06A4  1903               	skipnz
  2933  06A5  0AD8               	incf	GLCD_Printf@v_num_s32+2,f
  2934  06A6  1903               	skipnz
  2935  06A7  0AD9               	incf	GLCD_Printf@v_num_s32+3,f
  2936                           
  2937                           ;glcd.c: 603: GLCD_DisplayChar('-');
  2938  06A8  302D               	movlw	45
  2939  06A9  120A  118A  22B2  120A  118A  	fcall	_GLCD_DisplayChar
  2940  06AE                     l152:	
  2941                           
  2942                           ;glcd.c: 604: }
  2943                           ;glcd.c: 605: GLCD_DisplayNumber(10u,v_num_s32,v_numOfDigitsToDisp_u8);
  2944  06AE  1283               	bcf	3,5	;RP0=0, select bank0
  2945  06AF  1303               	bcf	3,6	;RP1=0, select bank0
  2946  06B0  0859               	movf	GLCD_Printf@v_num_s32+3,w
  2947  06B1  00AC               	movwf	GLCD_DisplayNumber@v_number_u32+3
  2948  06B2  0858               	movf	GLCD_Printf@v_num_s32+2,w
  2949  06B3  00AB               	movwf	GLCD_DisplayNumber@v_number_u32+2
  2950  06B4  0857               	movf	GLCD_Printf@v_num_s32+1,w
  2951  06B5  00AA               	movwf	GLCD_DisplayNumber@v_number_u32+1
  2952  06B6  0856               	movf	GLCD_Printf@v_num_s32,w
  2953  06B7  00A9               	movwf	GLCD_DisplayNumber@v_number_u32
  2954  06B8  0865               	movf	GLCD_Printf@v_numOfDigitsToDisp_u8,w
  2955  06B9  00D3               	movwf	??_GLCD_Printf
  2956  06BA  0853               	movf	??_GLCD_Printf,w
  2957  06BB  00AD               	movwf	GLCD_DisplayNumber@v_numOfDigitsToDisplay_u8
  2958  06BC  300A               	movlw	10
  2959  06BD  120A  118A  24DB  120A  118A  	fcall	_GLCD_DisplayNumber
  2960                           
  2961                           ;glcd.c: 606: break;
  2962  06C2  2FF1               	goto	l1937
  2963  06C3                     l1879:	
  2964                           ;glcd.c: 608: case 'u':
  2965                           
  2966                           
  2967                           ;glcd.c: 609: v_num_u16 = (*(int *)__va_arg((*(int **)argp), (int)0));
  2968  06C3  1283               	bcf	3,5	;RP0=0, select bank0
  2969  06C4  1303               	bcf	3,6	;RP1=0, select bank0
  2970  06C5  0866               	movf	GLCD_Printf@argp,w
  2971  06C6  0084               	movwf	4
  2972  06C7  1383               	bcf	3,7	;select IRP bank0
  2973  06C8  0800               	movf	0,w
  2974  06C9  00E0               	movwf	GLCD_Printf@v_num_u16
  2975  06CA  0A84               	incf	4,f
  2976  06CB  0800               	movf	0,w
  2977  06CC  00E1               	movwf	GLCD_Printf@v_num_u16+1
  2978  06CD  3002               	movlw	2
  2979  06CE  00D3               	movwf	??_GLCD_Printf
  2980  06CF  0853               	movf	??_GLCD_Printf,w
  2981  06D0  07E6               	addwf	GLCD_Printf@argp,f
  2982                           
  2983                           ;glcd.c: 610: GLCD_DisplayNumber(10u,v_num_u16,v_numOfDigitsToDisp_u8);
  2984  06D1  0860               	movf	GLCD_Printf@v_num_u16,w
  2985  06D2  00A9               	movwf	GLCD_DisplayNumber@v_number_u32
  2986  06D3  0861               	movf	GLCD_Printf@v_num_u16+1,w
  2987  06D4  00AA               	movwf	GLCD_DisplayNumber@v_number_u32+1
  2988  06D5  01AB               	clrf	GLCD_DisplayNumber@v_number_u32+2
  2989  06D6  01AC               	clrf	GLCD_DisplayNumber@v_number_u32+3
  2990  06D7  0865               	movf	GLCD_Printf@v_numOfDigitsToDisp_u8,w
  2991  06D8  00D3               	movwf	??_GLCD_Printf
  2992  06D9  0853               	movf	??_GLCD_Printf,w
  2993  06DA  00AD               	movwf	GLCD_DisplayNumber@v_numOfDigitsToDisplay_u8
  2994  06DB  300A               	movlw	10
  2995  06DC  120A  118A  24DB  120A  118A  	fcall	_GLCD_DisplayNumber
  2996                           
  2997                           ;glcd.c: 611: break;
  2998  06E1  2FF1               	goto	l1937
  2999  06E2                     l1885:	
  3000                           ;glcd.c: 613: case 'U':
  3001                           
  3002                           
  3003                           ;glcd.c: 614: v_num_u32 = (*(uint32_t *)__va_arg((*(uint32_t **)argp), (uint32_t)0));
  3004  06E2  1283               	bcf	3,5	;RP0=0, select bank0
  3005  06E3  1303               	bcf	3,6	;RP1=0, select bank0
  3006  06E4  0866               	movf	GLCD_Printf@argp,w
  3007  06E5  0084               	movwf	4
  3008  06E6  1383               	bcf	3,7	;select IRP bank0
  3009  06E7  0800               	movf	0,w
  3010  06E8  00DC               	movwf	GLCD_Printf@v_num_u32
  3011  06E9  0A84               	incf	4,f
  3012  06EA  0800               	movf	0,w
  3013  06EB  00DD               	movwf	GLCD_Printf@v_num_u32+1
  3014  06EC  0A84               	incf	4,f
  3015  06ED  0800               	movf	0,w
  3016  06EE  00DE               	movwf	GLCD_Printf@v_num_u32+2
  3017  06EF  0A84               	incf	4,f
  3018  06F0  0800               	movf	0,w
  3019  06F1  00DF               	movwf	GLCD_Printf@v_num_u32+3
  3020  06F2  3004               	movlw	4
  3021  06F3  00D3               	movwf	??_GLCD_Printf
  3022  06F4  0853               	movf	??_GLCD_Printf,w
  3023  06F5  07E6               	addwf	GLCD_Printf@argp,f
  3024                           
  3025                           ;glcd.c: 615: GLCD_DisplayNumber(10u,v_num_u32,v_numOfDigitsToDisp_u8);
  3026  06F6  085F               	movf	GLCD_Printf@v_num_u32+3,w
  3027  06F7  00AC               	movwf	GLCD_DisplayNumber@v_number_u32+3
  3028  06F8  085E               	movf	GLCD_Printf@v_num_u32+2,w
  3029  06F9  00AB               	movwf	GLCD_DisplayNumber@v_number_u32+2
  3030  06FA  085D               	movf	GLCD_Printf@v_num_u32+1,w
  3031  06FB  00AA               	movwf	GLCD_DisplayNumber@v_number_u32+1
  3032  06FC  085C               	movf	GLCD_Printf@v_num_u32,w
  3033  06FD  00A9               	movwf	GLCD_DisplayNumber@v_number_u32
  3034  06FE  0865               	movf	GLCD_Printf@v_numOfDigitsToDisp_u8,w
  3035  06FF  00D3               	movwf	??_GLCD_Printf
  3036  0700  0853               	movf	??_GLCD_Printf,w
  3037  0701  00AD               	movwf	GLCD_DisplayNumber@v_numOfDigitsToDisplay_u8
  3038  0702  300A               	movlw	10
  3039  0703  120A  118A  24DB  120A  118A  	fcall	_GLCD_DisplayNumber
  3040                           
  3041                           ;glcd.c: 616: break;
  3042  0708  2FF1               	goto	l1937
  3043  0709                     l1891:	
  3044                           ;glcd.c: 618: case 'x':
  3045                           
  3046                           
  3047                           ;glcd.c: 619: v_num_u16 = (*(int *)__va_arg((*(int **)argp), (int)0));
  3048  0709  1283               	bcf	3,5	;RP0=0, select bank0
  3049  070A  1303               	bcf	3,6	;RP1=0, select bank0
  3050  070B  0866               	movf	GLCD_Printf@argp,w
  3051  070C  0084               	movwf	4
  3052  070D  1383               	bcf	3,7	;select IRP bank0
  3053  070E  0800               	movf	0,w
  3054  070F  00E0               	movwf	GLCD_Printf@v_num_u16
  3055  0710  0A84               	incf	4,f
  3056  0711  0800               	movf	0,w
  3057  0712  00E1               	movwf	GLCD_Printf@v_num_u16+1
  3058  0713  3002               	movlw	2
  3059  0714  00D3               	movwf	??_GLCD_Printf
  3060  0715  0853               	movf	??_GLCD_Printf,w
  3061  0716  07E6               	addwf	GLCD_Printf@argp,f
  3062                           
  3063                           ;glcd.c: 620: GLCD_DisplayNumber(16u,v_num_u16,v_numOfDigitsToDisp_u8);
  3064  0717  0860               	movf	GLCD_Printf@v_num_u16,w
  3065  0718  00A9               	movwf	GLCD_DisplayNumber@v_number_u32
  3066  0719  0861               	movf	GLCD_Printf@v_num_u16+1,w
  3067  071A  00AA               	movwf	GLCD_DisplayNumber@v_number_u32+1
  3068  071B  01AB               	clrf	GLCD_DisplayNumber@v_number_u32+2
  3069  071C  01AC               	clrf	GLCD_DisplayNumber@v_number_u32+3
  3070  071D  0865               	movf	GLCD_Printf@v_numOfDigitsToDisp_u8,w
  3071  071E  00D3               	movwf	??_GLCD_Printf
  3072  071F  0853               	movf	??_GLCD_Printf,w
  3073  0720  00AD               	movwf	GLCD_DisplayNumber@v_numOfDigitsToDisplay_u8
  3074  0721  3010               	movlw	16
  3075  0722  120A  118A  24DB  120A  118A  	fcall	_GLCD_DisplayNumber
  3076                           
  3077                           ;glcd.c: 621: break;
  3078  0727  2FF1               	goto	l1937
  3079  0728                     l1897:	
  3080                           ;glcd.c: 623: case 'X':
  3081                           
  3082                           
  3083                           ;glcd.c: 624: v_num_u32 = (*(uint32_t *)__va_arg((*(uint32_t **)argp), (uint32_t)0));
  3084  0728  1283               	bcf	3,5	;RP0=0, select bank0
  3085  0729  1303               	bcf	3,6	;RP1=0, select bank0
  3086  072A  0866               	movf	GLCD_Printf@argp,w
  3087  072B  0084               	movwf	4
  3088  072C  1383               	bcf	3,7	;select IRP bank0
  3089  072D  0800               	movf	0,w
  3090  072E  00DC               	movwf	GLCD_Printf@v_num_u32
  3091  072F  0A84               	incf	4,f
  3092  0730  0800               	movf	0,w
  3093  0731  00DD               	movwf	GLCD_Printf@v_num_u32+1
  3094  0732  0A84               	incf	4,f
  3095  0733  0800               	movf	0,w
  3096  0734  00DE               	movwf	GLCD_Printf@v_num_u32+2
  3097  0735  0A84               	incf	4,f
  3098  0736  0800               	movf	0,w
  3099  0737  00DF               	movwf	GLCD_Printf@v_num_u32+3
  3100  0738  3004               	movlw	4
  3101  0739  00D3               	movwf	??_GLCD_Printf
  3102  073A  0853               	movf	??_GLCD_Printf,w
  3103  073B  07E6               	addwf	GLCD_Printf@argp,f
  3104                           
  3105                           ;glcd.c: 625: GLCD_DisplayNumber(16u,v_num_u32,v_numOfDigitsToDisp_u8);
  3106  073C  085F               	movf	GLCD_Printf@v_num_u32+3,w
  3107  073D  00AC               	movwf	GLCD_DisplayNumber@v_number_u32+3
  3108  073E  085E               	movf	GLCD_Printf@v_num_u32+2,w
  3109  073F  00AB               	movwf	GLCD_DisplayNumber@v_number_u32+2
  3110  0740  085D               	movf	GLCD_Printf@v_num_u32+1,w
  3111  0741  00AA               	movwf	GLCD_DisplayNumber@v_number_u32+1
  3112  0742  085C               	movf	GLCD_Printf@v_num_u32,w
  3113  0743  00A9               	movwf	GLCD_DisplayNumber@v_number_u32
  3114  0744  0865               	movf	GLCD_Printf@v_numOfDigitsToDisp_u8,w
  3115  0745  00D3               	movwf	??_GLCD_Printf
  3116  0746  0853               	movf	??_GLCD_Printf,w
  3117  0747  00AD               	movwf	GLCD_DisplayNumber@v_numOfDigitsToDisplay_u8
  3118  0748  3010               	movlw	16
  3119  0749  120A  118A  24DB  120A  118A  	fcall	_GLCD_DisplayNumber
  3120                           
  3121                           ;glcd.c: 626: break;
  3122  074E  2FF1               	goto	l1937
  3123  074F                     l1903:	
  3124                           ;glcd.c: 629: case 'b':
  3125                           
  3126                           
  3127                           ;glcd.c: 630: v_num_u16 = (*(int *)__va_arg((*(int **)argp), (int)0));
  3128  074F  1283               	bcf	3,5	;RP0=0, select bank0
  3129  0750  1303               	bcf	3,6	;RP1=0, select bank0
  3130  0751  0866               	movf	GLCD_Printf@argp,w
  3131  0752  0084               	movwf	4
  3132  0753  1383               	bcf	3,7	;select IRP bank0
  3133  0754  0800               	movf	0,w
  3134  0755  00E0               	movwf	GLCD_Printf@v_num_u16
  3135  0756  0A84               	incf	4,f
  3136  0757  0800               	movf	0,w
  3137  0758  00E1               	movwf	GLCD_Printf@v_num_u16+1
  3138  0759  3002               	movlw	2
  3139  075A  00D3               	movwf	??_GLCD_Printf
  3140  075B  0853               	movf	??_GLCD_Printf,w
  3141  075C  07E6               	addwf	GLCD_Printf@argp,f
  3142                           
  3143                           ;glcd.c: 631: if(v_numOfDigitsToDisp_u8 == 0xffu)
  3144  075D  0A65               	incf	GLCD_Printf@v_numOfDigitsToDisp_u8,w
  3145  075E  1D03               	btfss	3,2
  3146  075F  2F64               	goto	l1911
  3147                           
  3148                           ;glcd.c: 632: v_numOfDigitsToDisp_u8 = 16;
  3149  0760  3010               	movlw	16
  3150  0761  00D3               	movwf	??_GLCD_Printf
  3151  0762  0853               	movf	??_GLCD_Printf,w
  3152  0763  00E5               	movwf	GLCD_Printf@v_numOfDigitsToDisp_u8
  3153  0764                     l1911:	
  3154                           
  3155                           ;glcd.c: 633: GLCD_DisplayNumber(2u,v_num_u16,v_numOfDigitsToDisp_u8);
  3156  0764  0860               	movf	GLCD_Printf@v_num_u16,w
  3157  0765  00A9               	movwf	GLCD_DisplayNumber@v_number_u32
  3158  0766  0861               	movf	GLCD_Printf@v_num_u16+1,w
  3159  0767  00AA               	movwf	GLCD_DisplayNumber@v_number_u32+1
  3160  0768  01AB               	clrf	GLCD_DisplayNumber@v_number_u32+2
  3161  0769  01AC               	clrf	GLCD_DisplayNumber@v_number_u32+3
  3162  076A  0865               	movf	GLCD_Printf@v_numOfDigitsToDisp_u8,w
  3163  076B  00D3               	movwf	??_GLCD_Printf
  3164  076C  0853               	movf	??_GLCD_Printf,w
  3165  076D  00AD               	movwf	GLCD_DisplayNumber@v_numOfDigitsToDisplay_u8
  3166  076E  3002               	movlw	2
  3167  076F  120A  118A  24DB  120A  118A  	fcall	_GLCD_DisplayNumber
  3168                           
  3169                           ;glcd.c: 634: break;
  3170  0774  2FF1               	goto	l1937
  3171  0775                     l1913:	
  3172                           ;glcd.c: 636: case 'B':
  3173                           
  3174                           
  3175                           ;glcd.c: 637: v_num_u32 = (*(uint32_t *)__va_arg((*(uint32_t **)argp), (uint32_t)0));
  3176  0775  1283               	bcf	3,5	;RP0=0, select bank0
  3177  0776  1303               	bcf	3,6	;RP1=0, select bank0
  3178  0777  0866               	movf	GLCD_Printf@argp,w
  3179  0778  0084               	movwf	4
  3180  0779  1383               	bcf	3,7	;select IRP bank0
  3181  077A  0800               	movf	0,w
  3182  077B  00DC               	movwf	GLCD_Printf@v_num_u32
  3183  077C  0A84               	incf	4,f
  3184  077D  0800               	movf	0,w
  3185  077E  00DD               	movwf	GLCD_Printf@v_num_u32+1
  3186  077F  0A84               	incf	4,f
  3187  0780  0800               	movf	0,w
  3188  0781  00DE               	movwf	GLCD_Printf@v_num_u32+2
  3189  0782  0A84               	incf	4,f
  3190  0783  0800               	movf	0,w
  3191  0784  00DF               	movwf	GLCD_Printf@v_num_u32+3
  3192  0785  3004               	movlw	4
  3193  0786  00D3               	movwf	??_GLCD_Printf
  3194  0787  0853               	movf	??_GLCD_Printf,w
  3195  0788  07E6               	addwf	GLCD_Printf@argp,f
  3196                           
  3197                           ;glcd.c: 638: if(v_numOfDigitsToDisp_u8 == 0xffu)
  3198  0789  0A65               	incf	GLCD_Printf@v_numOfDigitsToDisp_u8,w
  3199  078A  1D03               	btfss	3,2
  3200  078B  2F90               	goto	l1921
  3201                           
  3202                           ;glcd.c: 639: v_numOfDigitsToDisp_u8 = 16;
  3203  078C  3010               	movlw	16
  3204  078D  00D3               	movwf	??_GLCD_Printf
  3205  078E  0853               	movf	??_GLCD_Printf,w
  3206  078F  00E5               	movwf	GLCD_Printf@v_numOfDigitsToDisp_u8
  3207  0790                     l1921:	
  3208                           
  3209                           ;glcd.c: 640: GLCD_DisplayNumber(2u,v_num_u32,v_numOfDigitsToDisp_u8);
  3210  0790  085F               	movf	GLCD_Printf@v_num_u32+3,w
  3211  0791  00AC               	movwf	GLCD_DisplayNumber@v_number_u32+3
  3212  0792  085E               	movf	GLCD_Printf@v_num_u32+2,w
  3213  0793  00AB               	movwf	GLCD_DisplayNumber@v_number_u32+2
  3214  0794  085D               	movf	GLCD_Printf@v_num_u32+1,w
  3215  0795  00AA               	movwf	GLCD_DisplayNumber@v_number_u32+1
  3216  0796  085C               	movf	GLCD_Printf@v_num_u32,w
  3217  0797  00A9               	movwf	GLCD_DisplayNumber@v_number_u32
  3218  0798  0865               	movf	GLCD_Printf@v_numOfDigitsToDisp_u8,w
  3219  0799  00D3               	movwf	??_GLCD_Printf
  3220  079A  0853               	movf	??_GLCD_Printf,w
  3221  079B  00AD               	movwf	GLCD_DisplayNumber@v_numOfDigitsToDisplay_u8
  3222  079C  3002               	movlw	2
  3223  079D  120A  118A  24DB  120A  118A  	fcall	_GLCD_DisplayNumber
  3224                           
  3225                           ;glcd.c: 645: case 'f':
  3226                           ;glcd.c: 650: break;
  3227                           
  3228                           ;glcd.c: 644: case 'F':
  3229                           
  3230                           ;glcd.c: 641: break;
  3231  07A2  2FF1               	goto	l1937
  3232  07A3                     l1923:	
  3233                           ;glcd.c: 653: case 'S':
  3234                           
  3235                           
  3236                           ;glcd.c: 654: case 's':
  3237                           ;glcd.c: 655: str = (*(char * *)__va_arg((*(char * **)argp), (char *)0));
  3238  07A3  1283               	bcf	3,5	;RP0=0, select bank0
  3239  07A4  1303               	bcf	3,6	;RP1=0, select bank0
  3240  07A5  0866               	movf	GLCD_Printf@argp,w
  3241  07A6  0084               	movwf	4
  3242  07A7  1383               	bcf	3,7	;select IRP bank0
  3243  07A8  0800               	movf	0,w
  3244  07A9  00D3               	movwf	??_GLCD_Printf
  3245  07AA  0853               	movf	??_GLCD_Printf,w
  3246  07AB  00D5               	movwf	GLCD_Printf@str
  3247  07AC  3001               	movlw	1
  3248  07AD  00D3               	movwf	??_GLCD_Printf
  3249  07AE  0853               	movf	??_GLCD_Printf,w
  3250  07AF  07E6               	addwf	GLCD_Printf@argp,f
  3251                           
  3252                           ;glcd.c: 656: GLCD_DisplayString(str);
  3253  07B0  0855               	movf	GLCD_Printf@str,w
  3254  07B1  120A  118A  200A  120A  118A  	fcall	_GLCD_DisplayString
  3255                           
  3256                           ;glcd.c: 657: break;
  3257  07B6  2FF1               	goto	l1937
  3258  07B7                     l1929:	
  3259                           ;glcd.c: 659: case '%':
  3260                           
  3261                           
  3262                           ;glcd.c: 660: GLCD_DisplayChar('%');
  3263  07B7  3025               	movlw	37
  3264  07B8  2FEC               	goto	L3
  3265  07B9                     l1933:	
  3266                           ;glcd.c: 662: }
  3267                           
  3268                           ;glcd.c: 661: break;
  3269                           
  3270  07B9  1283               	bcf	3,5	;RP0=0, select bank0
  3271  07BA  1303               	bcf	3,6	;RP1=0, select bank0
  3272  07BB  0864               	movf	GLCD_Printf@ch,w
  3273                           
  3274                           ; Switch size 1, requested type "space"
  3275                           ; Number of cases is 15, Range of values is 37 to 120
  3276                           ; switch strategies available:
  3277                           ; Name         Instructions Cycles
  3278                           ; simple_byte           46    24 (average)
  3279                           ; direct_byte          263    11 (fixed)
  3280                           ; jumptable            263     9 (fixed)
  3281                           ;	Chosen strategy is simple_byte
  3282  07BC  3A25               	xorlw	37	; case 37
  3283  07BD  1903               	skipnz
  3284  07BE  2FB7               	goto	l1929
  3285  07BF  3A67               	xorlw	103	; case 66
  3286  07C0  1903               	skipnz
  3287  07C1  2F75               	goto	l1913
  3288  07C2  3A01               	xorlw	1	; case 67
  3289  07C3  1903               	skipnz
  3290  07C4  2E4A               	goto	l1851
  3291  07C5  3A07               	xorlw	7	; case 68
  3292  07C6  1903               	skipnz
  3293  07C7  2E87               	goto	l1869
  3294  07C8  3A02               	xorlw	2	; case 70
  3295  07C9  1903               	skipnz
  3296  07CA  2FF1               	goto	l1937
  3297  07CB  3A15               	xorlw	21	; case 83
  3298  07CC  1903               	skipnz
  3299  07CD  2FA3               	goto	l1923
  3300  07CE  3A06               	xorlw	6	; case 85
  3301  07CF  1903               	skipnz
  3302  07D0  2EE2               	goto	l1885
  3303  07D1  3A0D               	xorlw	13	; case 88
  3304  07D2  1903               	skipnz
  3305  07D3  2F28               	goto	l1897
  3306  07D4  3A3A               	xorlw	58	; case 98
  3307  07D5  1903               	skipnz
  3308  07D6  2F4F               	goto	l1903
  3309  07D7  3A01               	xorlw	1	; case 99
  3310  07D8  1903               	skipnz
  3311  07D9  2E4A               	goto	l1851
  3312  07DA  3A07               	xorlw	7	; case 100
  3313  07DB  1903               	skipnz
  3314  07DC  2E56               	goto	l1857
  3315  07DD  3A02               	xorlw	2	; case 102
  3316  07DE  1903               	skipnz
  3317  07DF  2FF1               	goto	l1937
  3318  07E0  3A15               	xorlw	21	; case 115
  3319  07E1  1903               	skipnz
  3320  07E2  2FA3               	goto	l1923
  3321  07E3  3A06               	xorlw	6	; case 117
  3322  07E4  1903               	skipnz
  3323  07E5  2EC3               	goto	l1879
  3324  07E6  3A0D               	xorlw	13	; case 120
  3325  07E7  1903               	skipnz
  3326  07E8  2F09               	goto	l1891
  3327  07E9  2FF1               	goto	l1937
  3328                           
  3329                           ;glcd.c: 663: }
  3330  07EA  2FF1               	goto	l1937
  3331  07EB                     l1935:	
  3332                           
  3333                           ;glcd.c: 664: else
  3334                           ;glcd.c: 665: {
  3335                           ;glcd.c: 667: GLCD_DisplayChar(ch);
  3336  07EB  0864               	movf	GLCD_Printf@ch,w
  3337  07EC                     L3:	
  3338  07EC  120A  118A  22B2  120A  118A  	fcall	_GLCD_DisplayChar
  3339  07F1                     l1937:	
  3340  07F1  3001               	movlw	1
  3341  07F2  1283               	bcf	3,5	;RP0=0, select bank0
  3342  07F3  1303               	bcf	3,6	;RP1=0, select bank0
  3343  07F4  07E2               	addwf	GLCD_Printf@ptr,f
  3344  07F5  1803               	skipnc
  3345  07F6  0AE3               	incf	GLCD_Printf@ptr+1,f
  3346  07F7  2DE6               	goto	l1939
  3347  07F8                     __end_of_GLCD_Printf:	
  3348                           
  3349                           	psect	text3
  3350  000A                     __ptext3:	
  3351 ;; *************** function _GLCD_DisplayString *****************
  3352 ;; Defined at:
  3353 ;;		line 274 in file "../00-libfiles/glcd.c"
  3354 ;; Parameters:    Size  Location     Type
  3355 ;;  ptr             1    wreg     PTR unsigned char 
  3356 ;; Auto vars:     Size  Location     Type
  3357 ;;  ptr             1   11[COMMON] PTR unsigned char 
  3358 ;; Return value:  Size  Location     Type
  3359 ;;                  1    wreg      void 
  3360 ;; Registers used:
  3361 ;;		wreg, fsr0l, fsr0h, status,2, status,0, btemp+1, pclath, cstack
  3362 ;; Tracked objects:
  3363 ;;		On entry : 0/0
  3364 ;;		On exit  : 0/0
  3365 ;;		Unchanged: 0/0
  3366 ;; Data sizes:     COMMON   BANK0   BANK1   BANK3   BANK2
  3367 ;;      Params:         0       0       0       0       0
  3368 ;;      Locals:         1       0       0       0       0
  3369 ;;      Temps:          1       0       0       0       0
  3370 ;;      Totals:         2       0       0       0       0
  3371 ;;Total ram usage:        2 bytes
  3372 ;; Hardware stack levels used:    1
  3373 ;; Hardware stack levels required when called:    6
  3374 ;; This function calls:
  3375 ;;		_GLCD_DisplayChar
  3376 ;; This function is called by:
  3377 ;;		_GLCD_Printf
  3378 ;; This function uses a non-reentrant model
  3379 ;;
  3380                           
  3381                           
  3382                           ;psect for function _GLCD_DisplayString
  3383  000A                     _GLCD_DisplayString:	
  3384                           
  3385                           ;incstack = 0
  3386                           ; Regs used in _GLCD_DisplayString: [wreg-fsr0h+status,2+status,0+btemp+1+pclath+cstack]
  3387                           ;GLCD_DisplayString@ptr stored from wreg
  3388  000A  00FB               	movwf	GLCD_DisplayString@ptr
  3389  000B                     l1667:	
  3390                           ;glcd.c: 276: while(*ptr)
  3391                           
  3392  000B  087B               	movf	GLCD_DisplayString@ptr,w
  3393  000C  0084               	movwf	4
  3394  000D  1383               	bcf	3,7	;select IRP bank0
  3395  000E  0800               	movf	0,w
  3396  000F  1903               	btfsc	3,2
  3397  0010  0008               	return
  3398                           
  3399                           ;glcd.c: 277: GLCD_DisplayChar(*ptr++);
  3400  0011  087B               	movf	GLCD_DisplayString@ptr,w
  3401  0012  0084               	movwf	4
  3402  0013  1383               	bcf	3,7	;select IRP bank0
  3403  0014  0800               	movf	0,w
  3404  0015  120A  118A  22B2  120A  118A  	fcall	_GLCD_DisplayChar
  3405  001A  3001               	movlw	1
  3406  001B  00FA               	movwf	??_GLCD_DisplayString
  3407  001C  087A               	movf	??_GLCD_DisplayString,w
  3408  001D  07FB               	addwf	GLCD_DisplayString@ptr,f
  3409  001E  280B               	goto	l1667
  3410  001F                     __end_of_GLCD_DisplayString:	
  3411                           
  3412                           	psect	text4
  3413  00C1                     __ptext4:	
  3414 ;; *************** function _GLCD_Init *****************
  3415 ;; Defined at:
  3416 ;;		line 168 in file "../00-libfiles/glcd.c"
  3417 ;; Parameters:    Size  Location     Type
  3418 ;;		None
  3419 ;; Auto vars:     Size  Location     Type
  3420 ;;		None
  3421 ;; Return value:  Size  Location     Type
  3422 ;;                  1    wreg      void 
  3423 ;; Registers used:
  3424 ;;		wreg, status,2, status,0, pclath, cstack
  3425 ;; Tracked objects:
  3426 ;;		On entry : 0/0
  3427 ;;		On exit  : 0/0
  3428 ;;		Unchanged: 0/0
  3429 ;; Data sizes:     COMMON   BANK0   BANK1   BANK3   BANK2
  3430 ;;      Params:         0       0       0       0       0
  3431 ;;      Locals:         0       0       0       0       0
  3432 ;;      Temps:          1       0       0       0       0
  3433 ;;      Totals:         1       0       0       0       0
  3434 ;;Total ram usage:        1 bytes
  3435 ;; Hardware stack levels used:    1
  3436 ;; Hardware stack levels required when called:    6
  3437 ;; This function calls:
  3438 ;;		_DELAY_ms
  3439 ;;		_GLCD_Clear
  3440 ;;		_GLCD_GoToPage
  3441 ;;		_glcd_CmdWrite
  3442 ;;		_glcd_SelectPage0
  3443 ;;		_glcd_SelectPage1
  3444 ;; This function is called by:
  3445 ;;		_main
  3446 ;; This function uses a non-reentrant model
  3447 ;;
  3448                           
  3449                           
  3450                           ;psect for function _GLCD_Init
  3451  00C1                     _GLCD_Init:	
  3452                           
  3453                           ;glcd.c: 170: TRISB = 0x00;
  3454                           
  3455                           ;incstack = 0
  3456                           ; Regs used in _GLCD_Init: [wreg+status,2+status,0+pclath+cstack]
  3457  00C1  1683               	bsf	3,5	;RP0=1, select bank1
  3458  00C2  1303               	bcf	3,6	;RP1=0, select bank1
  3459  00C3  0186               	clrf	6	;volatile
  3460                           
  3461                           ;glcd.c: 171: TRISD &= ~((1<<0)|(1<<1)|(1<<2)|(1<<3)|(1<<4));
  3462  00C4  30E0               	movlw	224
  3463  00C5  00FB               	movwf	??_GLCD_Init
  3464  00C6  087B               	movf	??_GLCD_Init,w
  3465  00C7  0588               	andwf	8,f	;volatile
  3466                           
  3467                           ;glcd.c: 174: glcd_SelectPage0();
  3468  00C8  120A  158A  26AF  120A  118A  	fcall	_glcd_SelectPage0
  3469                           
  3470                           ;glcd.c: 175: glcd_CmdWrite(0x3f);
  3471  00CD  303F               	movlw	63
  3472  00CE  120A  158A  2748  120A  118A  	fcall	_glcd_CmdWrite
  3473                           
  3474                           ;glcd.c: 176: glcd_SelectPage1();
  3475  00D3  120A  158A  26B7  120A  118A  	fcall	_glcd_SelectPage1
  3476                           
  3477                           ;glcd.c: 177: glcd_CmdWrite(0x3f);
  3478  00D8  303F               	movlw	63
  3479  00D9  120A  158A  2748  120A  118A  	fcall	_glcd_CmdWrite
  3480                           
  3481                           ;glcd.c: 178: DELAY_ms(10);
  3482  00DE  300A               	movlw	10
  3483  00DF  00F2               	movwf	DELAY_ms@ms_count
  3484  00E0  3000               	movlw	0
  3485  00E1  00F3               	movwf	DELAY_ms@ms_count+1
  3486  00E2  120A  158A  2701  120A  118A  	fcall	_DELAY_ms
  3487                           
  3488                           ;glcd.c: 181: glcd_SelectPage0();
  3489  00E7  120A  158A  26AF  120A  118A  	fcall	_glcd_SelectPage0
  3490                           
  3491                           ;glcd.c: 182: glcd_CmdWrite(0xc0);
  3492  00EC  30C0               	movlw	192
  3493  00ED  120A  158A  2748  120A  118A  	fcall	_glcd_CmdWrite
  3494                           
  3495                           ;glcd.c: 183: glcd_SelectPage1();
  3496  00F2  120A  158A  26B7  120A  118A  	fcall	_glcd_SelectPage1
  3497                           
  3498                           ;glcd.c: 184: glcd_CmdWrite(0xc0);
  3499  00F7  30C0               	movlw	192
  3500  00F8  120A  158A  2748  120A  118A  	fcall	_glcd_CmdWrite
  3501                           
  3502                           ;glcd.c: 185: GLCD_GoToPage(0);
  3503  00FD  3000               	movlw	0
  3504  00FE  120A  158A  278A  120A  118A  	fcall	_GLCD_GoToPage
  3505                           
  3506                           ;glcd.c: 188: GLCD_Clear();
  3507  0103  120A  118A  201F  120A  118A  	fcall	_GLCD_Clear
  3508                           
  3509                           ;glcd.c: 191: GLCD.PageNum=0;
  3510  0108  1283               	bcf	3,5	;RP0=0, select bank0
  3511  0109  1303               	bcf	3,6	;RP1=0, select bank0
  3512  010A  01EA               	clrf	_GLCD
  3513                           
  3514                           ;glcd.c: 192: GLCD.LineNum=0xB8;
  3515  010B  30B8               	movlw	184
  3516  010C  00FB               	movwf	??_GLCD_Init
  3517  010D  087B               	movf	??_GLCD_Init,w
  3518  010E  00EB               	movwf	_GLCD+1
  3519                           
  3520                           ;glcd.c: 193: GLCD.CursorPos=0x40;
  3521  010F  3040               	movlw	64
  3522  0110  00FB               	movwf	??_GLCD_Init
  3523  0111  087B               	movf	??_GLCD_Init,w
  3524  0112  00EC               	movwf	_GLCD+2
  3525                           
  3526                           ;glcd.c: 194: GLCD_GoToPage(0);
  3527  0113  3000               	movlw	0
  3528  0114  120A  158A  278A   	fcall	_GLCD_GoToPage
  3529  0117  0008               	return
  3530  0118                     __end_of_GLCD_Init:	
  3531                           
  3532                           	psect	text5
  3533  001F                     __ptext5:	
  3534 ;; *************** function _GLCD_Clear *****************
  3535 ;; Defined at:
  3536 ;;		line 688 in file "../00-libfiles/glcd.c"
  3537 ;; Parameters:    Size  Location     Type
  3538 ;;		None
  3539 ;; Auto vars:     Size  Location     Type
  3540 ;;  line            1   10[COMMON] unsigned char 
  3541 ;;  cursor          1    9[COMMON] unsigned char 
  3542 ;; Return value:  Size  Location     Type
  3543 ;;                  1    wreg      void 
  3544 ;; Registers used:
  3545 ;;		wreg, status,2, status,0, pclath, cstack
  3546 ;; Tracked objects:
  3547 ;;		On entry : 0/0
  3548 ;;		On exit  : 0/0
  3549 ;;		Unchanged: 0/0
  3550 ;; Data sizes:     COMMON   BANK0   BANK1   BANK3   BANK2
  3551 ;;      Params:         0       0       0       0       0
  3552 ;;      Locals:         2       0       0       0       0
  3553 ;;      Temps:          1       0       0       0       0
  3554 ;;      Totals:         3       0       0       0       0
  3555 ;;Total ram usage:        3 bytes
  3556 ;; Hardware stack levels used:    1
  3557 ;; Hardware stack levels required when called:    5
  3558 ;; This function calls:
  3559 ;;		_GLCD_GoToLine
  3560 ;;		_glcd_CmdWrite
  3561 ;;		_glcd_DataWrite
  3562 ;;		_glcd_SelectPage0
  3563 ;;		_glcd_SelectPage1
  3564 ;; This function is called by:
  3565 ;;		_main
  3566 ;;		_GLCD_Init
  3567 ;; This function uses a non-reentrant model
  3568 ;;
  3569                           
  3570                           
  3571                           ;psect for function _GLCD_Clear
  3572  001F                     _GLCD_Clear:	
  3573                           
  3574                           ;glcd.c: 690: uint8_t line,cursor;
  3575                           ;glcd.c: 692: for(line=0;line<8;line++)
  3576                           
  3577                           ;incstack = 0
  3578                           ; Regs used in _GLCD_Clear: [wreg+status,2+status,0+pclath+cstack]
  3579  001F  01FA               	clrf	GLCD_Clear@line
  3580  0020  3008               	movlw	8
  3581  0021  027A               	subwf	GLCD_Clear@line,w
  3582  0022  1803               	btfsc	3,0
  3583  0023  2867               	goto	l1651
  3584  0024                     l1631:	
  3585                           
  3586                           ;glcd.c: 693: {
  3587                           ;glcd.c: 694: glcd_SelectPage0();
  3588  0024  120A  158A  26AF  120A  118A  	fcall	_glcd_SelectPage0
  3589                           
  3590                           ;glcd.c: 695: glcd_CmdWrite(0x40);
  3591  0029  3040               	movlw	64
  3592  002A  120A  158A  2748  120A  118A  	fcall	_glcd_CmdWrite
  3593                           
  3594                           ;glcd.c: 696: glcd_CmdWrite(0xB8+line);
  3595  002F  087A               	movf	GLCD_Clear@line,w
  3596  0030  3EB8               	addlw	184
  3597  0031  120A  158A  2748  120A  118A  	fcall	_glcd_CmdWrite
  3598                           
  3599                           ;glcd.c: 697: for(cursor=0;cursor<128;cursor++)
  3600  0036  01F9               	clrf	GLCD_Clear@cursor
  3601  0037  3080               	movlw	128
  3602  0038  0279               	subwf	GLCD_Clear@cursor,w
  3603  0039  1803               	btfsc	3,0
  3604  003A  285F               	goto	l1647
  3605  003B                     l1639:	
  3606                           
  3607                           ;glcd.c: 698: {
  3608                           ;glcd.c: 699: if(cursor==64)
  3609  003B  3040               	movlw	64
  3610  003C  0679               	xorwf	GLCD_Clear@cursor,w
  3611  003D  1D03               	btfss	3,2
  3612  003E  2851               	goto	l175
  3613                           
  3614                           ;glcd.c: 700: {
  3615                           ;glcd.c: 701: glcd_SelectPage1();
  3616  003F  120A  158A  26B7  120A  118A  	fcall	_glcd_SelectPage1
  3617                           
  3618                           ;glcd.c: 702: glcd_CmdWrite(0x40);
  3619  0044  3040               	movlw	64
  3620  0045  120A  158A  2748  120A  118A  	fcall	_glcd_CmdWrite
  3621                           
  3622                           ;glcd.c: 703: glcd_CmdWrite(0xB8+line);
  3623  004A  087A               	movf	GLCD_Clear@line,w
  3624  004B  3EB8               	addlw	184
  3625  004C  120A  158A  2748  120A  118A  	fcall	_glcd_CmdWrite
  3626  0051                     l175:	
  3627                           
  3628                           ;glcd.c: 704: }
  3629                           ;glcd.c: 705: glcd_DataWrite(0x00);
  3630  0051  3000               	movlw	0
  3631  0052  120A  158A  2729  120A  118A  	fcall	_glcd_DataWrite
  3632  0057  3001               	movlw	1
  3633  0058  00F8               	movwf	??_GLCD_Clear
  3634  0059  0878               	movf	??_GLCD_Clear,w
  3635  005A  07F9               	addwf	GLCD_Clear@cursor,f
  3636  005B  3080               	movlw	128
  3637  005C  0279               	subwf	GLCD_Clear@cursor,w
  3638  005D  1C03               	skipc
  3639  005E  283B               	goto	l1639
  3640  005F                     l1647:	
  3641  005F  3001               	movlw	1
  3642  0060  00F8               	movwf	??_GLCD_Clear
  3643  0061  0878               	movf	??_GLCD_Clear,w
  3644  0062  07FA               	addwf	GLCD_Clear@line,f
  3645  0063  3008               	movlw	8
  3646  0064  027A               	subwf	GLCD_Clear@line,w
  3647  0065  1C03               	skipc
  3648  0066  2824               	goto	l1631
  3649  0067                     l1651:	
  3650                           
  3651                           ;glcd.c: 706: }
  3652                           ;glcd.c: 707: }
  3653                           ;glcd.c: 709: GLCD_GoToLine(0);
  3654  0067  3000               	movlw	0
  3655  0068  120A  158A  26CA   	fcall	_GLCD_GoToLine
  3656  006B  0008               	return
  3657  006C                     __end_of_GLCD_Clear:	
  3658                           
  3659                           	psect	text6
  3660  0ECA                     __ptext6:	
  3661 ;; *************** function _GLCD_GoToLine *****************
  3662 ;; Defined at:
  3663 ;;		line 764 in file "../00-libfiles/glcd.c"
  3664 ;; Parameters:    Size  Location     Type
  3665 ;;  lineNumber      1    wreg     unsigned char 
  3666 ;; Auto vars:     Size  Location     Type
  3667 ;;  lineNumber      1    7[COMMON] unsigned char 
  3668 ;; Return value:  Size  Location     Type
  3669 ;;                  1    wreg      void 
  3670 ;; Registers used:
  3671 ;;		wreg, status,2, status,0, pclath, cstack
  3672 ;; Tracked objects:
  3673 ;;		On entry : 0/0
  3674 ;;		On exit  : 0/0
  3675 ;;		Unchanged: 0/0
  3676 ;; Data sizes:     COMMON   BANK0   BANK1   BANK3   BANK2
  3677 ;;      Params:         0       0       0       0       0
  3678 ;;      Locals:         1       0       0       0       0
  3679 ;;      Temps:          1       0       0       0       0
  3680 ;;      Totals:         2       0       0       0       0
  3681 ;;Total ram usage:        2 bytes
  3682 ;; Hardware stack levels used:    1
  3683 ;; Hardware stack levels required when called:    4
  3684 ;; This function calls:
  3685 ;;		_GLCD_GoToPage
  3686 ;; This function is called by:
  3687 ;;		_GLCD_Clear
  3688 ;; This function uses a non-reentrant model
  3689 ;;
  3690                           
  3691                           
  3692                           ;psect for function _GLCD_GoToLine
  3693  0ECA                     _GLCD_GoToLine:	
  3694                           
  3695                           ;incstack = 0
  3696                           ; Regs used in _GLCD_GoToLine: [wreg+status,2+status,0+pclath+cstack]
  3697                           ;GLCD_GoToLine@lineNumber stored from wreg
  3698  0ECA  00F7               	movwf	GLCD_GoToLine@lineNumber
  3699                           
  3700                           ;glcd.c: 766: if(lineNumber<8)
  3701  0ECB  3008               	movlw	8
  3702  0ECC  0277               	subwf	GLCD_GoToLine@lineNumber,w
  3703  0ECD  1803               	skipnc
  3704  0ECE  0008               	return
  3705                           
  3706                           ;glcd.c: 767: {
  3707                           ;glcd.c: 769: GLCD.LineNum = lineNumber+0xB8;
  3708  0ECF  0877               	movf	GLCD_GoToLine@lineNumber,w
  3709  0ED0  3EB8               	addlw	184
  3710  0ED1  00F6               	movwf	??_GLCD_GoToLine
  3711  0ED2  0876               	movf	??_GLCD_GoToLine,w
  3712  0ED3  1283               	bcf	3,5	;RP0=0, select bank0
  3713  0ED4  1303               	bcf	3,6	;RP1=0, select bank0
  3714  0ED5  00EB               	movwf	_GLCD+1
  3715                           
  3716                           ;glcd.c: 770: GLCD_GoToPage(0);
  3717  0ED6  3000               	movlw	0
  3718  0ED7  120A  158A  278A   	fcall	_GLCD_GoToPage
  3719  0EDA  0008               	return
  3720  0EDB                     __end_of_GLCD_GoToLine:	
  3721                           
  3722                           	psect	text7
  3723  0231                     __ptext7:	
  3724 ;; *************** function _GLCD_HorizontalGraph *****************
  3725 ;; Defined at:
  3726 ;;		line 961 in file "../00-libfiles/glcd.c"
  3727 ;; Parameters:    Size  Location     Type
  3728 ;;  var_barGraph    1    wreg     unsigned char 
  3729 ;;  var_percenta    1   40[BANK0 ] unsigned char 
  3730 ;; Auto vars:     Size  Location     Type
  3731 ;;  var_barGraph    1   46[BANK0 ] unsigned char 
  3732 ;;  i               1   48[BANK0 ] unsigned char 
  3733 ;;  var_lineNumb    1   47[BANK0 ] unsigned char 
  3734 ;; Return value:  Size  Location     Type
  3735 ;;                  1    wreg      void 
  3736 ;; Registers used:
  3737 ;;		wreg, fsr0l, fsr0h, status,2, status,0, btemp+1, pclath, cstack
  3738 ;; Tracked objects:
  3739 ;;		On entry : 0/0
  3740 ;;		On exit  : 0/0
  3741 ;;		Unchanged: 0/0
  3742 ;; Data sizes:     COMMON   BANK0   BANK1   BANK3   BANK2
  3743 ;;      Params:         0       1       0       0       0
  3744 ;;      Locals:         0       3       0       0       0
  3745 ;;      Temps:          0       5       0       0       0
  3746 ;;      Totals:         0       9       0       0       0
  3747 ;;Total ram usage:        9 bytes
  3748 ;; Hardware stack levels used:    1
  3749 ;; Hardware stack levels required when called:    7
  3750 ;; This function calls:
  3751 ;;		_GLCD_DisplayNumber
  3752 ;;		_GLCD_GoToPage
  3753 ;;		_GLCD_SetCursor
  3754 ;;		_glcd_DataWrite
  3755 ;; This function is called by:
  3756 ;;		_main
  3757 ;; This function uses a non-reentrant model
  3758 ;;
  3759                           
  3760                           
  3761                           ;psect for function _GLCD_HorizontalGraph
  3762  0231                     _GLCD_HorizontalGraph:	
  3763                           
  3764                           ;incstack = 0
  3765                           ; Regs used in _GLCD_HorizontalGraph: [wreg-fsr0h+status,2+status,0+btemp+1+pclath+cstac
      +                          k]
  3766                           ;GLCD_HorizontalGraph@var_barGraphNumber_u8 stored from wreg
  3767  0231  1283               	bcf	3,5	;RP0=0, select bank0
  3768  0232  1303               	bcf	3,6	;RP1=0, select bank0
  3769  0233  00CE               	movwf	GLCD_HorizontalGraph@var_barGraphNumber_u8
  3770                           
  3771                           ;glcd.c: 963: uint8_t var_lineNumber_u8,i;
  3772                           ;glcd.c: 964: var_lineNumber_u8 = (var_barGraphNumber_u8 * 2)+1;
  3773  0234  1403               	setc
  3774  0235  0D4E               	rlf	GLCD_HorizontalGraph@var_barGraphNumber_u8,w
  3775  0236  00C9               	movwf	??_GLCD_HorizontalGraph
  3776  0237  0849               	movf	??_GLCD_HorizontalGraph,w
  3777  0238  00CF               	movwf	GLCD_HorizontalGraph@var_lineNumber_u8
  3778                           
  3779                           ;glcd.c: 966: if((var_barGraphNumber_u8 < 4) && (var_percentageValue_u8<=100))
  3780  0239  3004               	movlw	4
  3781  023A  024E               	subwf	GLCD_HorizontalGraph@var_barGraphNumber_u8,w
  3782  023B  1803               	skipnc
  3783  023C  0008               	return
  3784  023D  3065               	movlw	101
  3785  023E  0248               	subwf	GLCD_HorizontalGraph@var_percentageValue_u8,w
  3786  023F  1803               	skipnc
  3787  0240  0008               	return
  3788                           
  3789                           ;glcd.c: 967: {
  3790                           ;glcd.c: 968: GLCD_GoToPage(0);
  3791  0241  3000               	movlw	0
  3792  0242  120A  158A  278A  120A  118A  	fcall	_GLCD_GoToPage
  3793                           
  3794                           ;glcd.c: 969: GLCD_SetCursor(var_lineNumber_u8,0);
  3795  0247  01F9               	clrf	GLCD_SetCursor@CursorPosition
  3796  0248  1283               	bcf	3,5	;RP0=0, select bank0
  3797  0249  1303               	bcf	3,6	;RP1=0, select bank0
  3798  024A  084F               	movf	GLCD_HorizontalGraph@var_lineNumber_u8,w
  3799  024B  120A  118A  21CF  120A  118A  	fcall	_GLCD_SetCursor
  3800                           
  3801                           ;glcd.c: 971: for(i=0;i<var_percentageValue_u8;i++)
  3802  0250  1283               	bcf	3,5	;RP0=0, select bank0
  3803  0251  1303               	bcf	3,6	;RP1=0, select bank0
  3804  0252  01D0               	clrf	GLCD_HorizontalGraph@i
  3805  0253                     l1957:	
  3806  0253  0848               	movf	GLCD_HorizontalGraph@var_percentageValue_u8,w
  3807  0254  0250               	subwf	GLCD_HorizontalGraph@i,w
  3808  0255  1803               	btfsc	3,0
  3809  0256  2A6E               	goto	l1959
  3810                           
  3811                           ;glcd.c: 972: {
  3812                           ;glcd.c: 973: if(i==64)
  3813  0257  3040               	movlw	64
  3814  0258  0650               	xorwf	GLCD_HorizontalGraph@i,w
  3815  0259  1D03               	btfss	3,2
  3816  025A  2A61               	goto	l224
  3817                           
  3818                           ;glcd.c: 974: GLCD_GoToPage(1);
  3819  025B  3001               	movlw	1
  3820  025C  120A  158A  278A  120A  118A  	fcall	_GLCD_GoToPage
  3821  0261                     l224:	
  3822                           
  3823                           ;glcd.c: 976: glcd_DataWrite(0xff);
  3824  0261  30FF               	movlw	255
  3825  0262  120A  158A  2729  120A  118A  	fcall	_glcd_DataWrite
  3826  0267  3001               	movlw	1
  3827  0268  1283               	bcf	3,5	;RP0=0, select bank0
  3828  0269  1303               	bcf	3,6	;RP1=0, select bank0
  3829  026A  00C9               	movwf	??_GLCD_HorizontalGraph
  3830  026B  0849               	movf	??_GLCD_HorizontalGraph,w
  3831  026C  07D0               	addwf	GLCD_HorizontalGraph@i,f
  3832  026D  2A53               	goto	l1957
  3833  026E                     l1959:	
  3834                           
  3835                           ;glcd.c: 978: }
  3836                           ;glcd.c: 980: for(i=var_percentageValue_u8;i<100;i++)
  3837  026E  0848               	movf	GLCD_HorizontalGraph@var_percentageValue_u8,w
  3838  026F  00C9               	movwf	??_GLCD_HorizontalGraph
  3839  0270  0849               	movf	??_GLCD_HorizontalGraph,w
  3840  0271  00D0               	movwf	GLCD_HorizontalGraph@i
  3841  0272  3064               	movlw	100
  3842  0273  0250               	subwf	GLCD_HorizontalGraph@i,w
  3843  0274  1803               	btfsc	3,0
  3844  0275  2A90               	goto	l1971
  3845  0276                     l1963:	
  3846                           
  3847                           ;glcd.c: 981: {
  3848                           ;glcd.c: 982: if(i==64)
  3849  0276  3040               	movlw	64
  3850  0277  0650               	xorwf	GLCD_HorizontalGraph@i,w
  3851  0278  1D03               	btfss	3,2
  3852  0279  2A80               	goto	l228
  3853                           
  3854                           ;glcd.c: 983: GLCD_GoToPage(1);
  3855  027A  3001               	movlw	1
  3856  027B  120A  158A  278A  120A  118A  	fcall	_GLCD_GoToPage
  3857  0280                     l228:	
  3858                           
  3859                           ;glcd.c: 985: glcd_DataWrite(0x00);
  3860  0280  3000               	movlw	0
  3861  0281  120A  158A  2729  120A  118A  	fcall	_glcd_DataWrite
  3862  0286  3001               	movlw	1
  3863  0287  1283               	bcf	3,5	;RP0=0, select bank0
  3864  0288  1303               	bcf	3,6	;RP1=0, select bank0
  3865  0289  00C9               	movwf	??_GLCD_HorizontalGraph
  3866  028A  0849               	movf	??_GLCD_HorizontalGraph,w
  3867  028B  07D0               	addwf	GLCD_HorizontalGraph@i,f
  3868  028C  3064               	movlw	100
  3869  028D  0250               	subwf	GLCD_HorizontalGraph@i,w
  3870  028E  1C03               	skipc
  3871  028F  2A76               	goto	l1963
  3872  0290                     l1971:	
  3873                           
  3874                           ;glcd.c: 986: }
  3875                           ;glcd.c: 988: GLCD_SetCursor(var_lineNumber_u8,105);
  3876  0290  3069               	movlw	105
  3877  0291  00C9               	movwf	??_GLCD_HorizontalGraph
  3878  0292  0849               	movf	??_GLCD_HorizontalGraph,w
  3879  0293  00F9               	movwf	GLCD_SetCursor@CursorPosition
  3880  0294  084F               	movf	GLCD_HorizontalGraph@var_lineNumber_u8,w
  3881  0295  120A  118A  21CF  120A  118A  	fcall	_GLCD_SetCursor
  3882                           
  3883                           ;glcd.c: 990: GLCD_DisplayNumber(E_DECIMAL,var_percentageValue_u8,3);
  3884  029A  1283               	bcf	3,5	;RP0=0, select bank0
  3885  029B  1303               	bcf	3,6	;RP1=0, select bank0
  3886  029C  0848               	movf	GLCD_HorizontalGraph@var_percentageValue_u8,w
  3887  029D  00C9               	movwf	??_GLCD_HorizontalGraph
  3888  029E  01CA               	clrf	??_GLCD_HorizontalGraph+1
  3889  029F  01CB               	clrf	??_GLCD_HorizontalGraph+2
  3890  02A0  01CC               	clrf	??_GLCD_HorizontalGraph+3
  3891  02A1  084C               	movf	??_GLCD_HorizontalGraph+3,w
  3892  02A2  00AC               	movwf	GLCD_DisplayNumber@v_number_u32+3
  3893  02A3  084B               	movf	??_GLCD_HorizontalGraph+2,w
  3894  02A4  00AB               	movwf	GLCD_DisplayNumber@v_number_u32+2
  3895  02A5  084A               	movf	??_GLCD_HorizontalGraph+1,w
  3896  02A6  00AA               	movwf	GLCD_DisplayNumber@v_number_u32+1
  3897  02A7  0849               	movf	??_GLCD_HorizontalGraph,w
  3898  02A8  00A9               	movwf	GLCD_DisplayNumber@v_number_u32
  3899  02A9  3003               	movlw	3
  3900  02AA  00CD               	movwf	??_GLCD_HorizontalGraph+4
  3901  02AB  084D               	movf	??_GLCD_HorizontalGraph+4,w
  3902  02AC  00AD               	movwf	GLCD_DisplayNumber@v_numOfDigitsToDisplay_u8
  3903  02AD  300A               	movlw	10
  3904  02AE  120A  118A  24DB   	fcall	_GLCD_DisplayNumber
  3905  02B1  0008               	return
  3906  02B2                     __end_of_GLCD_HorizontalGraph:	
  3907                           
  3908                           	psect	text8
  3909  01CF                     __ptext8:	
  3910 ;; *************** function _GLCD_SetCursor *****************
  3911 ;; Defined at:
  3912 ;;		line 820 in file "../00-libfiles/glcd.c"
  3913 ;; Parameters:    Size  Location     Type
  3914 ;;  lineNumber      1    wreg     unsigned char 
  3915 ;;  CursorPositi    1    9[COMMON] unsigned char 
  3916 ;; Auto vars:     Size  Location     Type
  3917 ;;  lineNumber      1    0[BANK0 ] unsigned char 
  3918 ;;  pageNumber      1    1[BANK0 ] unsigned char 
  3919 ;; Return value:  Size  Location     Type
  3920 ;;                  1    wreg      void 
  3921 ;; Registers used:
  3922 ;;		wreg, status,2, status,0, pclath, cstack
  3923 ;; Tracked objects:
  3924 ;;		On entry : 0/0
  3925 ;;		On exit  : 0/0
  3926 ;;		Unchanged: 0/0
  3927 ;; Data sizes:     COMMON   BANK0   BANK1   BANK3   BANK2
  3928 ;;      Params:         1       0       0       0       0
  3929 ;;      Locals:         0       2       0       0       0
  3930 ;;      Temps:          3       0       0       0       0
  3931 ;;      Totals:         4       2       0       0       0
  3932 ;;Total ram usage:        6 bytes
  3933 ;; Hardware stack levels used:    1
  3934 ;; Hardware stack levels required when called:    3
  3935 ;; This function calls:
  3936 ;;		___awdiv
  3937 ;;		___awmod
  3938 ;;		_glcd_CmdWrite
  3939 ;;		_glcd_SelectPage0
  3940 ;;		_glcd_SelectPage1
  3941 ;; This function is called by:
  3942 ;;		_GLCD_VerticalGraph
  3943 ;;		_GLCD_HorizontalGraph
  3944 ;; This function uses a non-reentrant model
  3945 ;;
  3946                           
  3947                           
  3948                           ;psect for function _GLCD_SetCursor
  3949  01CF                     _GLCD_SetCursor:	
  3950                           
  3951                           ;incstack = 0
  3952                           ; Regs used in _GLCD_SetCursor: [wreg+status,2+status,0+pclath+cstack]
  3953                           ;GLCD_SetCursor@lineNumber stored from wreg
  3954  01CF  1283               	bcf	3,5	;RP0=0, select bank0
  3955  01D0  1303               	bcf	3,6	;RP1=0, select bank0
  3956  01D1  00A0               	movwf	GLCD_SetCursor@lineNumber
  3957                           
  3958                           ;glcd.c: 823: uint8_t pageNumber;
  3959                           ;glcd.c: 825: if((lineNumber <= 0x07u) && (CursorPosition <= 128))
  3960  01D2  3008               	movlw	8
  3961  01D3  0220               	subwf	GLCD_SetCursor@lineNumber,w
  3962  01D4  1803               	skipnc
  3963  01D5  0008               	return
  3964  01D6  3081               	movlw	129
  3965  01D7  0279               	subwf	GLCD_SetCursor@CursorPosition,w
  3966  01D8  1803               	skipnc
  3967  01D9  0008               	return
  3968                           
  3969                           ;glcd.c: 826: {
  3970                           ;glcd.c: 827: pageNumber = CursorPosition / 64;
  3971  01DA  3040               	movlw	64
  3972  01DB  00F0               	movwf	___awdiv@divisor
  3973  01DC  3000               	movlw	0
  3974  01DD  00F1               	movwf	___awdiv@divisor+1
  3975  01DE  0879               	movf	GLCD_SetCursor@CursorPosition,w
  3976  01DF  00FA               	movwf	??_GLCD_SetCursor
  3977  01E0  01FB               	clrf	??_GLCD_SetCursor+1
  3978  01E1  087A               	movf	??_GLCD_SetCursor,w
  3979  01E2  00F2               	movwf	___awdiv@dividend
  3980  01E3  087B               	movf	??_GLCD_SetCursor+1,w
  3981  01E4  00F3               	movwf	___awdiv@dividend+1
  3982  01E5  120A  118A  2118  120A  118A  	fcall	___awdiv
  3983  01EA  0870               	movf	?___awdiv,w
  3984  01EB  00FC               	movwf	??_GLCD_SetCursor+2
  3985  01EC  087C               	movf	??_GLCD_SetCursor+2,w
  3986  01ED  1283               	bcf	3,5	;RP0=0, select bank0
  3987  01EE  1303               	bcf	3,6	;RP1=0, select bank0
  3988  01EF  00A1               	movwf	GLCD_SetCursor@pageNumber
  3989                           
  3990                           ;glcd.c: 828: CursorPosition = CursorPosition % 0x3f;
  3991  01F0  303F               	movlw	63
  3992  01F1  00F0               	movwf	___awmod@divisor
  3993  01F2  3000               	movlw	0
  3994  01F3  00F1               	movwf	___awmod@divisor+1
  3995  01F4  0879               	movf	GLCD_SetCursor@CursorPosition,w
  3996  01F5  00FA               	movwf	??_GLCD_SetCursor
  3997  01F6  01FB               	clrf	??_GLCD_SetCursor+1
  3998  01F7  087A               	movf	??_GLCD_SetCursor,w
  3999  01F8  00F2               	movwf	___awmod@dividend
  4000  01F9  087B               	movf	??_GLCD_SetCursor+1,w
  4001  01FA  00F3               	movwf	___awmod@dividend+1
  4002  01FB  120A  158A  27B5  120A  118A  	fcall	___awmod
  4003  0200  0870               	movf	?___awmod,w
  4004  0201  00FC               	movwf	??_GLCD_SetCursor+2
  4005  0202  087C               	movf	??_GLCD_SetCursor+2,w
  4006  0203  00F9               	movwf	GLCD_SetCursor@CursorPosition
  4007                           
  4008                           ;glcd.c: 829: if(pageNumber==0x00)
  4009  0204  1283               	bcf	3,5	;RP0=0, select bank0
  4010  0205  1303               	bcf	3,6	;RP1=0, select bank0
  4011  0206  0821               	movf	GLCD_SetCursor@pageNumber,w
  4012  0207  1D03               	btfss	3,2
  4013  0208  2A0F               	goto	l1737
  4014                           
  4015                           ;glcd.c: 830: {
  4016                           ;glcd.c: 831: glcd_SelectPage0();
  4017  0209  120A  158A  26AF  120A  118A  	fcall	_glcd_SelectPage0
  4018                           
  4019                           ;glcd.c: 832: }
  4020  020E  2A14               	goto	l1739
  4021  020F                     l1737:	
  4022                           
  4023                           ;glcd.c: 833: else
  4024                           ;glcd.c: 834: {
  4025                           ;glcd.c: 835: glcd_SelectPage1();
  4026  020F  120A  158A  26B7  120A  118A  	fcall	_glcd_SelectPage1
  4027  0214                     l1739:	
  4028                           
  4029                           ;glcd.c: 836: }
  4030                           ;glcd.c: 838: GLCD.PageNum = pageNumber;
  4031  0214  1283               	bcf	3,5	;RP0=0, select bank0
  4032  0215  1303               	bcf	3,6	;RP1=0, select bank0
  4033  0216  0821               	movf	GLCD_SetCursor@pageNumber,w
  4034  0217  00FA               	movwf	??_GLCD_SetCursor
  4035  0218  087A               	movf	??_GLCD_SetCursor,w
  4036  0219  00EA               	movwf	_GLCD
  4037                           
  4038                           ;glcd.c: 839: GLCD.LineNum=lineNumber | 0xB8;
  4039  021A  0820               	movf	GLCD_SetCursor@lineNumber,w
  4040  021B  38B8               	iorlw	184
  4041  021C  00FA               	movwf	??_GLCD_SetCursor
  4042  021D  087A               	movf	??_GLCD_SetCursor,w
  4043  021E  00EB               	movwf	_GLCD+1
  4044                           
  4045                           ;glcd.c: 840: GLCD.CursorPos=CursorPosition |0x40;
  4046  021F  0879               	movf	GLCD_SetCursor@CursorPosition,w
  4047  0220  3840               	iorlw	64
  4048  0221  00FA               	movwf	??_GLCD_SetCursor
  4049  0222  087A               	movf	??_GLCD_SetCursor,w
  4050  0223  00EC               	movwf	_GLCD+2
  4051                           
  4052                           ;glcd.c: 842: glcd_CmdWrite(GLCD.CursorPos);
  4053  0224  086C               	movf	_GLCD+2,w
  4054  0225  120A  158A  2748  120A  118A  	fcall	_glcd_CmdWrite
  4055                           
  4056                           ;glcd.c: 843: glcd_CmdWrite(GLCD.LineNum);
  4057  022A  1283               	bcf	3,5	;RP0=0, select bank0
  4058  022B  1303               	bcf	3,6	;RP1=0, select bank0
  4059  022C  086B               	movf	_GLCD+1,w
  4060  022D  120A  158A  2748   	fcall	_glcd_CmdWrite
  4061  0230  0008               	return
  4062  0231                     __end_of_GLCD_SetCursor:	
  4063                           
  4064                           	psect	text9
  4065  0FB5                     __ptext9:	
  4066 ;; *************** function ___awmod *****************
  4067 ;; Defined at:
  4068 ;;		line 6 in file "C:\Program Files\Microchip\xc8\v1.36\sources\common\awmod.c"
  4069 ;; Parameters:    Size  Location     Type
  4070 ;;  divisor         2    0[COMMON] int 
  4071 ;;  dividend        2    2[COMMON] int 
  4072 ;; Auto vars:     Size  Location     Type
  4073 ;;  sign            1    6[COMMON] unsigned char 
  4074 ;;  counter         1    5[COMMON] unsigned char 
  4075 ;; Return value:  Size  Location     Type
  4076 ;;                  2    0[COMMON] int 
  4077 ;; Registers used:
  4078 ;;		wreg, status,2, status,0
  4079 ;; Tracked objects:
  4080 ;;		On entry : 0/0
  4081 ;;		On exit  : 0/0
  4082 ;;		Unchanged: 0/0
  4083 ;; Data sizes:     COMMON   BANK0   BANK1   BANK3   BANK2
  4084 ;;      Params:         4       0       0       0       0
  4085 ;;      Locals:         2       0       0       0       0
  4086 ;;      Temps:          1       0       0       0       0
  4087 ;;      Totals:         7       0       0       0       0
  4088 ;;Total ram usage:        7 bytes
  4089 ;; Hardware stack levels used:    1
  4090 ;; This function calls:
  4091 ;;		Nothing
  4092 ;; This function is called by:
  4093 ;;		_GLCD_SetCursor
  4094 ;; This function uses a non-reentrant model
  4095 ;;
  4096                           
  4097                           
  4098                           ;psect for function ___awmod
  4099  0FB5                     ___awmod:	
  4100                           
  4101                           ;incstack = 0
  4102                           ; Regs used in ___awmod: [wreg+status,2+status,0]
  4103  0FB5  01F6               	clrf	___awmod@sign
  4104  0FB6  1FF3               	btfss	___awmod@dividend+1,7
  4105  0FB7  2FBF               	goto	l1571
  4106  0FB8  09F2               	comf	___awmod@dividend,f
  4107  0FB9  09F3               	comf	___awmod@dividend+1,f
  4108  0FBA  0AF2               	incf	___awmod@dividend,f
  4109  0FBB  1903               	skipnz
  4110  0FBC  0AF3               	incf	___awmod@dividend+1,f
  4111  0FBD  01F6               	clrf	___awmod@sign
  4112  0FBE  0AF6               	incf	___awmod@sign,f
  4113  0FBF                     l1571:	
  4114  0FBF  1FF1               	btfss	___awmod@divisor+1,7
  4115  0FC0  2FC6               	goto	l1575
  4116  0FC1  09F0               	comf	___awmod@divisor,f
  4117  0FC2  09F1               	comf	___awmod@divisor+1,f
  4118  0FC3  0AF0               	incf	___awmod@divisor,f
  4119  0FC4  1903               	skipnz
  4120  0FC5  0AF1               	incf	___awmod@divisor+1,f
  4121  0FC6                     l1575:	
  4122  0FC6  0870               	movf	___awmod@divisor,w
  4123  0FC7  0471               	iorwf	___awmod@divisor+1,w
  4124  0FC8  1903               	btfsc	3,2
  4125  0FC9  2FF3               	goto	l1593
  4126  0FCA  01F5               	clrf	___awmod@counter
  4127  0FCB  0AF5               	incf	___awmod@counter,f
  4128  0FCC                     l1583:	
  4129  0FCC  1BF1               	btfsc	___awmod@divisor+1,7
  4130  0FCD  2FDA               	goto	l1585
  4131  0FCE  3001               	movlw	1
  4132  0FCF                     u1375:	
  4133  0FCF  1003               	clrc
  4134  0FD0  0DF0               	rlf	___awmod@divisor,f
  4135  0FD1  0DF1               	rlf	___awmod@divisor+1,f
  4136  0FD2  3EFF               	addlw	-1
  4137  0FD3  1D03               	skipz
  4138  0FD4  2FCF               	goto	u1375
  4139  0FD5  3001               	movlw	1
  4140  0FD6  00F4               	movwf	??___awmod
  4141  0FD7  0874               	movf	??___awmod,w
  4142  0FD8  07F5               	addwf	___awmod@counter,f
  4143  0FD9  2FCC               	goto	l1583
  4144  0FDA                     l1585:	
  4145  0FDA  0871               	movf	___awmod@divisor+1,w
  4146  0FDB  0273               	subwf	___awmod@dividend+1,w
  4147  0FDC  1D03               	skipz
  4148  0FDD  2FE0               	goto	u1395
  4149  0FDE  0870               	movf	___awmod@divisor,w
  4150  0FDF  0272               	subwf	___awmod@dividend,w
  4151  0FE0                     u1395:	
  4152  0FE0  1C03               	skipc
  4153  0FE1  2FE8               	goto	l1589
  4154  0FE2  0870               	movf	___awmod@divisor,w
  4155  0FE3  02F2               	subwf	___awmod@dividend,f
  4156  0FE4  0871               	movf	___awmod@divisor+1,w
  4157  0FE5  1C03               	skipc
  4158  0FE6  03F3               	decf	___awmod@dividend+1,f
  4159  0FE7  02F3               	subwf	___awmod@dividend+1,f
  4160  0FE8                     l1589:	
  4161  0FE8  3001               	movlw	1
  4162  0FE9                     u1405:	
  4163  0FE9  1003               	clrc
  4164  0FEA  0CF1               	rrf	___awmod@divisor+1,f
  4165  0FEB  0CF0               	rrf	___awmod@divisor,f
  4166  0FEC  3EFF               	addlw	-1
  4167  0FED  1D03               	skipz
  4168  0FEE  2FE9               	goto	u1405
  4169  0FEF  3001               	movlw	1
  4170  0FF0  02F5               	subwf	___awmod@counter,f
  4171  0FF1  1D03               	btfss	3,2
  4172  0FF2  2FDA               	goto	l1585
  4173  0FF3                     l1593:	
  4174  0FF3  0876               	movf	___awmod@sign,w
  4175  0FF4  1903               	btfsc	3,2
  4176  0FF5  2FFB               	goto	l1597
  4177  0FF6  09F2               	comf	___awmod@dividend,f
  4178  0FF7  09F3               	comf	___awmod@dividend+1,f
  4179  0FF8  0AF2               	incf	___awmod@dividend,f
  4180  0FF9  1903               	skipnz
  4181  0FFA  0AF3               	incf	___awmod@dividend+1,f
  4182  0FFB                     l1597:	
  4183  0FFB  0873               	movf	___awmod@dividend+1,w
  4184  0FFC  00F1               	movwf	?___awmod+1
  4185  0FFD  0872               	movf	___awmod@dividend,w
  4186  0FFE  00F0               	movwf	?___awmod
  4187  0FFF  0008               	return
  4188  1000                     __end_of___awmod:	
  4189                           
  4190                           	psect	text10
  4191  0118                     __ptext10:	
  4192 ;; *************** function ___awdiv *****************
  4193 ;; Defined at:
  4194 ;;		line 6 in file "C:\Program Files\Microchip\xc8\v1.36\sources\common\awdiv.c"
  4195 ;; Parameters:    Size  Location     Type
  4196 ;;  divisor         2    0[COMMON] int 
  4197 ;;  dividend        2    2[COMMON] int 
  4198 ;; Auto vars:     Size  Location     Type
  4199 ;;  quotient        2    7[COMMON] int 
  4200 ;;  sign            1    6[COMMON] unsigned char 
  4201 ;;  counter         1    5[COMMON] unsigned char 
  4202 ;; Return value:  Size  Location     Type
  4203 ;;                  2    0[COMMON] int 
  4204 ;; Registers used:
  4205 ;;		wreg, status,2, status,0
  4206 ;; Tracked objects:
  4207 ;;		On entry : 0/0
  4208 ;;		On exit  : 0/0
  4209 ;;		Unchanged: 0/0
  4210 ;; Data sizes:     COMMON   BANK0   BANK1   BANK3   BANK2
  4211 ;;      Params:         4       0       0       0       0
  4212 ;;      Locals:         4       0       0       0       0
  4213 ;;      Temps:          1       0       0       0       0
  4214 ;;      Totals:         9       0       0       0       0
  4215 ;;Total ram usage:        9 bytes
  4216 ;; Hardware stack levels used:    1
  4217 ;; This function calls:
  4218 ;;		Nothing
  4219 ;; This function is called by:
  4220 ;;		_GLCD_SetCursor
  4221 ;;		_GLCD_VerticalGraph
  4222 ;; This function uses a non-reentrant model
  4223 ;;
  4224                           
  4225                           
  4226                           ;psect for function ___awdiv
  4227  0118                     ___awdiv:	
  4228                           
  4229                           ;incstack = 0
  4230                           ; Regs used in ___awdiv: [wreg+status,2+status,0]
  4231  0118  01F6               	clrf	___awdiv@sign
  4232  0119  1FF1               	btfss	___awdiv@divisor+1,7
  4233  011A  2922               	goto	l1527
  4234  011B  09F0               	comf	___awdiv@divisor,f
  4235  011C  09F1               	comf	___awdiv@divisor+1,f
  4236  011D  0AF0               	incf	___awdiv@divisor,f
  4237  011E  1903               	skipnz
  4238  011F  0AF1               	incf	___awdiv@divisor+1,f
  4239  0120  01F6               	clrf	___awdiv@sign
  4240  0121  0AF6               	incf	___awdiv@sign,f
  4241  0122                     l1527:	
  4242  0122  1FF3               	btfss	___awdiv@dividend+1,7
  4243  0123  292D               	goto	l1533
  4244  0124  09F2               	comf	___awdiv@dividend,f
  4245  0125  09F3               	comf	___awdiv@dividend+1,f
  4246  0126  0AF2               	incf	___awdiv@dividend,f
  4247  0127  1903               	skipnz
  4248  0128  0AF3               	incf	___awdiv@dividend+1,f
  4249  0129  3001               	movlw	1
  4250  012A  00F4               	movwf	??___awdiv
  4251  012B  0874               	movf	??___awdiv,w
  4252  012C  06F6               	xorwf	___awdiv@sign,f
  4253  012D                     l1533:	
  4254  012D  01F7               	clrf	___awdiv@quotient
  4255  012E  01F8               	clrf	___awdiv@quotient+1
  4256  012F  0870               	movf	___awdiv@divisor,w
  4257  0130  0471               	iorwf	___awdiv@divisor+1,w
  4258  0131  1903               	btfsc	3,2
  4259  0132  2964               	goto	l1555
  4260  0133  01F5               	clrf	___awdiv@counter
  4261  0134  0AF5               	incf	___awdiv@counter,f
  4262  0135                     l1543:	
  4263  0135  1BF1               	btfsc	___awdiv@divisor+1,7
  4264  0136  2943               	goto	l1545
  4265  0137  3001               	movlw	1
  4266  0138                     u1275:	
  4267  0138  1003               	clrc
  4268  0139  0DF0               	rlf	___awdiv@divisor,f
  4269  013A  0DF1               	rlf	___awdiv@divisor+1,f
  4270  013B  3EFF               	addlw	-1
  4271  013C  1D03               	skipz
  4272  013D  2938               	goto	u1275
  4273  013E  3001               	movlw	1
  4274  013F  00F4               	movwf	??___awdiv
  4275  0140  0874               	movf	??___awdiv,w
  4276  0141  07F5               	addwf	___awdiv@counter,f
  4277  0142  2935               	goto	l1543
  4278  0143                     l1545:	
  4279  0143  3001               	movlw	1
  4280  0144                     u1295:	
  4281  0144  1003               	clrc
  4282  0145  0DF7               	rlf	___awdiv@quotient,f
  4283  0146  0DF8               	rlf	___awdiv@quotient+1,f
  4284  0147  3EFF               	addlw	-1
  4285  0148  1D03               	skipz
  4286  0149  2944               	goto	u1295
  4287  014A  0871               	movf	___awdiv@divisor+1,w
  4288  014B  0273               	subwf	___awdiv@dividend+1,w
  4289  014C  1D03               	skipz
  4290  014D  2950               	goto	u1305
  4291  014E  0870               	movf	___awdiv@divisor,w
  4292  014F  0272               	subwf	___awdiv@dividend,w
  4293  0150                     u1305:	
  4294  0150  1C03               	skipc
  4295  0151  2959               	goto	l1551
  4296  0152  0870               	movf	___awdiv@divisor,w
  4297  0153  02F2               	subwf	___awdiv@dividend,f
  4298  0154  0871               	movf	___awdiv@divisor+1,w
  4299  0155  1C03               	skipc
  4300  0156  03F3               	decf	___awdiv@dividend+1,f
  4301  0157  02F3               	subwf	___awdiv@dividend+1,f
  4302  0158  1477               	bsf	___awdiv@quotient,0
  4303  0159                     l1551:	
  4304  0159  3001               	movlw	1
  4305  015A                     u1315:	
  4306  015A  1003               	clrc
  4307  015B  0CF1               	rrf	___awdiv@divisor+1,f
  4308  015C  0CF0               	rrf	___awdiv@divisor,f
  4309  015D  3EFF               	addlw	-1
  4310  015E  1D03               	skipz
  4311  015F  295A               	goto	u1315
  4312  0160  3001               	movlw	1
  4313  0161  02F5               	subwf	___awdiv@counter,f
  4314  0162  1D03               	btfss	3,2
  4315  0163  2943               	goto	l1545
  4316  0164                     l1555:	
  4317  0164  0876               	movf	___awdiv@sign,w
  4318  0165  1903               	btfsc	3,2
  4319  0166  296C               	goto	l1559
  4320  0167  09F7               	comf	___awdiv@quotient,f
  4321  0168  09F8               	comf	___awdiv@quotient+1,f
  4322  0169  0AF7               	incf	___awdiv@quotient,f
  4323  016A  1903               	skipnz
  4324  016B  0AF8               	incf	___awdiv@quotient+1,f
  4325  016C                     l1559:	
  4326  016C  0878               	movf	___awdiv@quotient+1,w
  4327  016D  00F1               	movwf	?___awdiv+1
  4328  016E  0877               	movf	___awdiv@quotient,w
  4329  016F  00F0               	movwf	?___awdiv
  4330  0170  0008               	return
  4331  0171                     __end_of___awdiv:	
  4332                           
  4333                           	psect	text11
  4334  04DB                     __ptext11:	
  4335 ;; *************** function _GLCD_DisplayNumber *****************
  4336 ;; Defined at:
  4337 ;;		line 392 in file "../00-libfiles/glcd.c"
  4338 ;; Parameters:    Size  Location     Type
  4339 ;;  v_numericSys    1    wreg     unsigned char 
  4340 ;;  v_number_u32    4    9[BANK0 ] unsigned long 
  4341 ;;  v_numOfDigit    1   13[BANK0 ] unsigned char 
  4342 ;; Auto vars:     Size  Location     Type
  4343 ;;  v_numericSys    1   38[BANK0 ] unsigned char 
  4344 ;;  a              10   26[BANK0 ] unsigned char [10]
  4345 ;;  i               1   39[BANK0 ] unsigned char 
  4346 ;; Return value:  Size  Location     Type
  4347 ;;                  1    wreg      void 
  4348 ;; Registers used:
  4349 ;;		wreg, fsr0l, fsr0h, status,2, status,0, btemp+1, pclath, cstack
  4350 ;; Tracked objects:
  4351 ;;		On entry : 0/0
  4352 ;;		On exit  : 0/0
  4353 ;;		Unchanged: 0/0
  4354 ;; Data sizes:     COMMON   BANK0   BANK1   BANK3   BANK2
  4355 ;;      Params:         0       5       0       0       0
  4356 ;;      Locals:         0      14       0       0       0
  4357 ;;      Temps:          0      12       0       0       0
  4358 ;;      Totals:         0      31       0       0       0
  4359 ;;Total ram usage:       31 bytes
  4360 ;; Hardware stack levels used:    1
  4361 ;; Hardware stack levels required when called:    6
  4362 ;; This function calls:
  4363 ;;		_GLCD_DisplayChar
  4364 ;;		___bmul
  4365 ;;		___lldiv
  4366 ;; This function is called by:
  4367 ;;		_GLCD_Printf
  4368 ;;		_GLCD_VerticalGraph
  4369 ;;		_GLCD_HorizontalGraph
  4370 ;; This function uses a non-reentrant model
  4371 ;;
  4372                           
  4373                           
  4374                           ;psect for function _GLCD_DisplayNumber
  4375  04DB                     _GLCD_DisplayNumber:	
  4376                           
  4377                           ;incstack = 0
  4378                           ; Regs used in _GLCD_DisplayNumber: [wreg-fsr0h+status,2+status,0+btemp+1+pclath+cstack]
  4379                           ;GLCD_DisplayNumber@v_numericSystem_u8 stored from wreg
  4380  04DB  1283               	bcf	3,5	;RP0=0, select bank0
  4381  04DC  1303               	bcf	3,6	;RP1=0, select bank0
  4382  04DD  00C6               	movwf	GLCD_DisplayNumber@v_numericSystem_u8
  4383                           
  4384                           ;glcd.c: 394: uint8_t i=0,a[10];
  4385  04DE  01C7               	clrf	GLCD_DisplayNumber@i
  4386                           
  4387                           ;glcd.c: 396: if(2u == v_numericSystem_u8)
  4388  04DF  3002               	movlw	2
  4389  04E0  0646               	xorwf	GLCD_DisplayNumber@v_numericSystem_u8,w
  4390  04E1  1903               	btfsc	3,2
  4391  04E2  2D22               	goto	l1681
  4392  04E3  2D26               	goto	l1683
  4393  04E4                     l1675:	
  4394                           ;glcd.c: 397: {
  4395                           ;glcd.c: 398: while(v_numOfDigitsToDisplay_u8!=0)
  4396                           
  4397                           
  4398                           ;glcd.c: 399: {
  4399                           ;glcd.c: 402: i = (((v_number_u32)&((1<<((v_numOfDigitsToDisplay_u8-1)))))!=0u);
  4400  04E4  0829               	movf	GLCD_DisplayNumber@v_number_u32,w
  4401  04E5  00AE               	movwf	??_GLCD_DisplayNumber
  4402  04E6  082A               	movf	GLCD_DisplayNumber@v_number_u32+1,w
  4403  04E7  00AF               	movwf	??_GLCD_DisplayNumber+1
  4404  04E8  082B               	movf	GLCD_DisplayNumber@v_number_u32+2,w
  4405  04E9  00B0               	movwf	??_GLCD_DisplayNumber+2
  4406  04EA  082C               	movf	GLCD_DisplayNumber@v_number_u32+3,w
  4407  04EB  00B1               	movwf	??_GLCD_DisplayNumber+3
  4408  04EC  082D               	movf	GLCD_DisplayNumber@v_numOfDigitsToDisplay_u8,w
  4409  04ED  3EFF               	addlw	-1
  4410  04EE  00B2               	movwf	??_GLCD_DisplayNumber+4
  4411  04EF  0AB2               	incf	??_GLCD_DisplayNumber+4,f
  4412  04F0  3001               	movlw	1
  4413  04F1  00B3               	movwf	??_GLCD_DisplayNumber+5
  4414  04F2  3000               	movlw	0
  4415  04F3  00B4               	movwf	??_GLCD_DisplayNumber+6
  4416  04F4  2CF8               	goto	u1584
  4417  04F5                     u1585:	
  4418  04F5  1003               	clrc
  4419  04F6  0DB3               	rlf	??_GLCD_DisplayNumber+5,f
  4420  04F7  0DB4               	rlf	??_GLCD_DisplayNumber+6,f
  4421  04F8                     u1584:	
  4422  04F8  0BB2               	decfsz	??_GLCD_DisplayNumber+4,f
  4423  04F9  2CF5               	goto	u1585
  4424  04FA  0833               	movf	??_GLCD_DisplayNumber+5,w
  4425  04FB  00B5               	movwf	??_GLCD_DisplayNumber+7
  4426  04FC  0834               	movf	??_GLCD_DisplayNumber+6,w
  4427  04FD  00B6               	movwf	??_GLCD_DisplayNumber+8
  4428  04FE  3000               	movlw	0
  4429  04FF  1BB6               	btfsc	??_GLCD_DisplayNumber+8,7
  4430  0500  30FF               	movlw	255
  4431  0501  00B7               	movwf	??_GLCD_DisplayNumber+9
  4432  0502  00B8               	movwf	??_GLCD_DisplayNumber+10
  4433  0503  0835               	movf	??_GLCD_DisplayNumber+7,w
  4434  0504  05AE               	andwf	??_GLCD_DisplayNumber,f
  4435  0505  0836               	movf	??_GLCD_DisplayNumber+8,w
  4436  0506  05AF               	andwf	??_GLCD_DisplayNumber+1,f
  4437  0507  0837               	movf	??_GLCD_DisplayNumber+9,w
  4438  0508  05B0               	andwf	??_GLCD_DisplayNumber+2,f
  4439  0509  0838               	movf	??_GLCD_DisplayNumber+10,w
  4440  050A  05B1               	andwf	??_GLCD_DisplayNumber+3,f
  4441  050B  0831               	movf	??_GLCD_DisplayNumber+3,w
  4442  050C  0430               	iorwf	??_GLCD_DisplayNumber+2,w
  4443  050D  042F               	iorwf	??_GLCD_DisplayNumber+1,w
  4444  050E  042E               	iorwf	??_GLCD_DisplayNumber,w
  4445  050F  1903               	btfsc	3,2
  4446  0510  2D13               	goto	u1590
  4447  0511  3001               	movlw	1
  4448  0512  2D14               	goto	u1600
  4449  0513                     u1590:	
  4450  0513  3000               	movlw	0
  4451  0514                     u1600:	
  4452  0514  00B9               	movwf	??_GLCD_DisplayNumber+11
  4453  0515  0839               	movf	??_GLCD_DisplayNumber+11,w
  4454  0516  00C7               	movwf	GLCD_DisplayNumber@i
  4455                           
  4456                           ;glcd.c: 403: GLCD_DisplayChar(((i)+0x30));
  4457  0517  0847               	movf	GLCD_DisplayNumber@i,w
  4458  0518  3E30               	addlw	48
  4459  0519  120A  118A  22B2  120A  118A  	fcall	_GLCD_DisplayChar
  4460                           
  4461                           ;glcd.c: 404: v_numOfDigitsToDisplay_u8--;
  4462  051E  3001               	movlw	1
  4463  051F  1283               	bcf	3,5	;RP0=0, select bank0
  4464  0520  1303               	bcf	3,6	;RP1=0, select bank0
  4465  0521  02AD               	subwf	GLCD_DisplayNumber@v_numOfDigitsToDisplay_u8,f
  4466  0522                     l1681:	
  4467  0522  082D               	movf	GLCD_DisplayNumber@v_numOfDigitsToDisplay_u8,w
  4468  0523  1903               	btfsc	3,2
  4469  0524  0008               	return
  4470  0525  2CE4               	goto	l1675
  4471  0526                     l1683:	
  4472                           ;glcd.c: 405: }
  4473                           ;glcd.c: 406: }
  4474                           
  4475                           
  4476                           ;glcd.c: 407: else if(v_number_u32==0)
  4477  0526  082C               	movf	GLCD_DisplayNumber@v_number_u32+3,w
  4478  0527  042B               	iorwf	GLCD_DisplayNumber@v_number_u32+2,w
  4479  0528  042A               	iorwf	GLCD_DisplayNumber@v_number_u32+1,w
  4480  0529  0429               	iorwf	GLCD_DisplayNumber@v_number_u32,w
  4481  052A  1D03               	skipz
  4482  052B  2D42               	goto	l1695
  4483                           
  4484                           ;glcd.c: 408: {
  4485                           ;glcd.c: 410: for(i=0;((i<v_numOfDigitsToDisplay_u8) && (i<10u));i++)
  4486  052C  01C7               	clrf	GLCD_DisplayNumber@i
  4487  052D                     l1691:	
  4488  052D  082D               	movf	GLCD_DisplayNumber@v_numOfDigitsToDisplay_u8,w
  4489  052E  0247               	subwf	GLCD_DisplayNumber@i,w
  4490  052F  1803               	skipnc
  4491  0530  0008               	return
  4492  0531  300A               	movlw	10
  4493  0532  0247               	subwf	GLCD_DisplayNumber@i,w
  4494  0533  1803               	btfsc	3,0
  4495  0534  0008               	return
  4496                           
  4497                           ;glcd.c: 411: GLCD_DisplayChar('0');
  4498  0535  3030               	movlw	48
  4499  0536  120A  118A  22B2  120A  118A  	fcall	_GLCD_DisplayChar
  4500  053B  3001               	movlw	1
  4501  053C  1283               	bcf	3,5	;RP0=0, select bank0
  4502  053D  1303               	bcf	3,6	;RP1=0, select bank0
  4503  053E  00AE               	movwf	??_GLCD_DisplayNumber
  4504  053F  082E               	movf	??_GLCD_DisplayNumber,w
  4505  0540  07C7               	addwf	GLCD_DisplayNumber@i,f
  4506  0541  2D2D               	goto	l1691
  4507  0542                     l1695:	
  4508                           ;glcd.c: 412: }
  4509                           
  4510                           
  4511                           ;glcd.c: 413: else
  4512                           ;glcd.c: 414: {
  4513                           ;glcd.c: 415: for(i=0;i<v_numOfDigitsToDisplay_u8;i++)
  4514  0542  01C7               	clrf	GLCD_DisplayNumber@i
  4515  0543                     l1713:	
  4516  0543  082D               	movf	GLCD_DisplayNumber@v_numOfDigitsToDisplay_u8,w
  4517  0544  0247               	subwf	GLCD_DisplayNumber@i,w
  4518  0545  1803               	btfsc	3,0
  4519  0546  2DD8               	goto	l1725
  4520                           
  4521                           ;glcd.c: 416: {
  4522                           ;glcd.c: 419: if(v_number_u32!=0)
  4523  0547  082C               	movf	GLCD_DisplayNumber@v_number_u32+3,w
  4524  0548  042B               	iorwf	GLCD_DisplayNumber@v_number_u32+2,w
  4525  0549  042A               	iorwf	GLCD_DisplayNumber@v_number_u32+1,w
  4526  054A  0429               	iorwf	GLCD_DisplayNumber@v_number_u32,w
  4527  054B  1903               	skipnz
  4528  054C  2DA2               	goto	l1703
  4529                           
  4530                           ;glcd.c: 420: {
  4531                           ;glcd.c: 427: a[i]=(uint32_t)(v_number_u32 - (v_numericSystem_u8 * (uint32_t)(v_number_u
      +                          32/v_numericSystem_u8)));
  4532  054D  0846               	movf	GLCD_DisplayNumber@v_numericSystem_u8,w
  4533  054E  00AE               	movwf	??_GLCD_DisplayNumber
  4534  054F  082E               	movf	??_GLCD_DisplayNumber,w
  4535  0550  00A0               	movwf	___bmul@multiplicand
  4536  0551  082C               	movf	GLCD_DisplayNumber@v_number_u32+3,w
  4537  0552  00F7               	movwf	___lldiv@dividend+3
  4538  0553  082B               	movf	GLCD_DisplayNumber@v_number_u32+2,w
  4539  0554  00F6               	movwf	___lldiv@dividend+2
  4540  0555  082A               	movf	GLCD_DisplayNumber@v_number_u32+1,w
  4541  0556  00F5               	movwf	___lldiv@dividend+1
  4542  0557  0829               	movf	GLCD_DisplayNumber@v_number_u32,w
  4543  0558  00F4               	movwf	___lldiv@dividend
  4544  0559  0846               	movf	GLCD_DisplayNumber@v_numericSystem_u8,w
  4545  055A  00AF               	movwf	??_GLCD_DisplayNumber+1
  4546  055B  01B0               	clrf	??_GLCD_DisplayNumber+2
  4547  055C  01B1               	clrf	??_GLCD_DisplayNumber+3
  4548  055D  01B2               	clrf	??_GLCD_DisplayNumber+4
  4549  055E  0832               	movf	??_GLCD_DisplayNumber+4,w
  4550  055F  00F3               	movwf	___lldiv@divisor+3
  4551  0560  0831               	movf	??_GLCD_DisplayNumber+3,w
  4552  0561  00F2               	movwf	___lldiv@divisor+2
  4553  0562  0830               	movf	??_GLCD_DisplayNumber+2,w
  4554  0563  00F1               	movwf	___lldiv@divisor+1
  4555  0564  082F               	movf	??_GLCD_DisplayNumber+1,w
  4556  0565  00F0               	movwf	___lldiv@divisor
  4557  0566  120A  118A  2171  120A  118A  	fcall	___lldiv
  4558  056B  0870               	movf	?___lldiv,w
  4559  056C  120A  158A  26EE  120A  118A  	fcall	___bmul
  4560  0571  3AFF               	xorlw	255
  4561  0572  3E01               	addlw	1
  4562  0573  1283               	bcf	3,5	;RP0=0, select bank0
  4563  0574  1303               	bcf	3,6	;RP1=0, select bank0
  4564  0575  0729               	addwf	GLCD_DisplayNumber@v_number_u32,w
  4565  0576  00B3               	movwf	??_GLCD_DisplayNumber+5
  4566  0577  0847               	movf	GLCD_DisplayNumber@i,w
  4567  0578  3E3A               	addlw	(low (GLCD_DisplayNumber@a| 0))& (0+255)
  4568  0579  0084               	movwf	4
  4569  057A  0833               	movf	??_GLCD_DisplayNumber+5,w
  4570  057B  1383               	bcf	3,7	;select IRP bank0
  4571  057C  0080               	movwf	0
  4572                           
  4573                           ;glcd.c: 428: v_number_u32=v_number_u32/v_numericSystem_u8;
  4574  057D  0846               	movf	GLCD_DisplayNumber@v_numericSystem_u8,w
  4575  057E  00AE               	movwf	??_GLCD_DisplayNumber
  4576  057F  01AF               	clrf	??_GLCD_DisplayNumber+1
  4577  0580  01B0               	clrf	??_GLCD_DisplayNumber+2
  4578  0581  01B1               	clrf	??_GLCD_DisplayNumber+3
  4579  0582  0831               	movf	??_GLCD_DisplayNumber+3,w
  4580  0583  00F3               	movwf	___lldiv@divisor+3
  4581  0584  0830               	movf	??_GLCD_DisplayNumber+2,w
  4582  0585  00F2               	movwf	___lldiv@divisor+2
  4583  0586  082F               	movf	??_GLCD_DisplayNumber+1,w
  4584  0587  00F1               	movwf	___lldiv@divisor+1
  4585  0588  082E               	movf	??_GLCD_DisplayNumber,w
  4586  0589  00F0               	movwf	___lldiv@divisor
  4587  058A  082C               	movf	GLCD_DisplayNumber@v_number_u32+3,w
  4588  058B  00F7               	movwf	___lldiv@dividend+3
  4589  058C  082B               	movf	GLCD_DisplayNumber@v_number_u32+2,w
  4590  058D  00F6               	movwf	___lldiv@dividend+2
  4591  058E  082A               	movf	GLCD_DisplayNumber@v_number_u32+1,w
  4592  058F  00F5               	movwf	___lldiv@dividend+1
  4593  0590  0829               	movf	GLCD_DisplayNumber@v_number_u32,w
  4594  0591  00F4               	movwf	___lldiv@dividend
  4595  0592  120A  118A  2171  120A  118A  	fcall	___lldiv
  4596  0597  0873               	movf	?___lldiv+3,w
  4597  0598  1283               	bcf	3,5	;RP0=0, select bank0
  4598  0599  1303               	bcf	3,6	;RP1=0, select bank0
  4599  059A  00AC               	movwf	GLCD_DisplayNumber@v_number_u32+3
  4600  059B  0872               	movf	?___lldiv+2,w
  4601  059C  00AB               	movwf	GLCD_DisplayNumber@v_number_u32+2
  4602  059D  0871               	movf	?___lldiv+1,w
  4603  059E  00AA               	movwf	GLCD_DisplayNumber@v_number_u32+1
  4604  059F  0870               	movf	?___lldiv,w
  4605  05A0  00A9               	movwf	GLCD_DisplayNumber@v_number_u32
  4606                           
  4607                           ;glcd.c: 429: }
  4608  05A1  2DAE               	goto	l1711
  4609  05A2                     l1703:	
  4610                           
  4611                           ;glcd.c: 430: else if( (v_numOfDigitsToDisplay_u8 == 0xffu) ||
  4612                           ;glcd.c: 431: (v_numOfDigitsToDisplay_u8 > 10u))
  4613  05A2  0A2D               	incf	GLCD_DisplayNumber@v_numOfDigitsToDisplay_u8,w
  4614  05A3  1903               	btfsc	3,2
  4615  05A4  2DD8               	goto	l1725
  4616  05A5  300B               	movlw	11
  4617  05A6  022D               	subwf	GLCD_DisplayNumber@v_numOfDigitsToDisplay_u8,w
  4618  05A7  1803               	btfsc	3,0
  4619  05A8  2DD8               	goto	l1725
  4620                           
  4621                           ;glcd.c: 437: else
  4622                           ;glcd.c: 438: {
  4623                           ;glcd.c: 442: a[i]=0;
  4624                           
  4625                           ;glcd.c: 436: }
  4626                           
  4627                           ;glcd.c: 432: {
  4628                           ;glcd.c: 435: break;
  4629  05A9  0847               	movf	GLCD_DisplayNumber@i,w
  4630  05AA  3E3A               	addlw	(low (GLCD_DisplayNumber@a| 0))& (0+255)
  4631  05AB  0084               	movwf	4
  4632  05AC  1383               	bcf	3,7	;select IRP bank0
  4633  05AD  0180               	clrf	0
  4634  05AE                     l1711:	
  4635  05AE  3001               	movlw	1
  4636  05AF  00AE               	movwf	??_GLCD_DisplayNumber
  4637  05B0  082E               	movf	??_GLCD_DisplayNumber,w
  4638  05B1  07C7               	addwf	GLCD_DisplayNumber@i,f
  4639  05B2  2D43               	goto	l1713
  4640  05B3                     l1715:	
  4641                           ;glcd.c: 443: }
  4642                           ;glcd.c: 444: }
  4643                           ;glcd.c: 446: while(i!=0)
  4644                           
  4645                           
  4646                           ;glcd.c: 447: {
  4647                           ;glcd.c: 449: GLCD_DisplayChar((((a[i-1])>0x09) ? ((a[i-1]) + 0x37): ((a[i-1]) + 0x30)))
      +                          ;
  4648  05B3  0847               	movf	GLCD_DisplayNumber@i,w
  4649  05B4  3EFF               	addlw	255
  4650  05B5  3E3A               	addlw	(low (GLCD_DisplayNumber@a| 0))& (0+255)
  4651  05B6  0084               	movwf	4
  4652  05B7  300A               	movlw	10
  4653  05B8  1383               	bcf	3,7	;select IRP bank0
  4654  05B9  0200               	subwf	0,w
  4655  05BA  1803               	skipnc
  4656  05BB  2DC3               	goto	l1719
  4657  05BC  0847               	movf	GLCD_DisplayNumber@i,w
  4658  05BD  3EFF               	addlw	255
  4659  05BE  3E3A               	addlw	(low (GLCD_DisplayNumber@a| 0))& (0+255)
  4660  05BF  0084               	movwf	4
  4661  05C0  0800               	movf	0,w
  4662  05C1  3E30               	addlw	48
  4663  05C2  2DC9               	goto	L4
  4664  05C3                     l1719:	
  4665  05C3  0847               	movf	GLCD_DisplayNumber@i,w
  4666  05C4  3EFF               	addlw	255
  4667  05C5  3E3A               	addlw	(low (GLCD_DisplayNumber@a| 0))& (0+255)
  4668  05C6  0084               	movwf	4
  4669  05C7  0800               	movf	0,w
  4670  05C8  3E37               	addlw	55
  4671  05C9                     L4:	
  4672  05C9  00C4               	movwf	_GLCD_DisplayNumber$148
  4673  05CA  3000               	movlw	0
  4674  05CB  1803               	skipnc
  4675  05CC  3001               	movlw	1
  4676  05CD  00C5               	movwf	_GLCD_DisplayNumber$148+1
  4677  05CE  0844               	movf	_GLCD_DisplayNumber$148,w
  4678  05CF  120A  118A  22B2  120A  118A  	fcall	_GLCD_DisplayChar
  4679                           
  4680                           ;glcd.c: 450: i--;
  4681  05D4  3001               	movlw	1
  4682  05D5  1283               	bcf	3,5	;RP0=0, select bank0
  4683  05D6  1303               	bcf	3,6	;RP1=0, select bank0
  4684  05D7  02C7               	subwf	GLCD_DisplayNumber@i,f
  4685  05D8                     l1725:	
  4686  05D8  0847               	movf	GLCD_DisplayNumber@i,w
  4687  05D9  1903               	btfsc	3,2
  4688  05DA  0008               	return
  4689  05DB  2DB3               	goto	l1715
  4690  05DC                     __end_of_GLCD_DisplayNumber:	
  4691                           
  4692                           	psect	text12
  4693  0171                     __ptext12:	
  4694 ;; *************** function ___lldiv *****************
  4695 ;; Defined at:
  4696 ;;		line 6 in file "C:\Program Files\Microchip\xc8\v1.36\sources\common\lldiv.c"
  4697 ;; Parameters:    Size  Location     Type
  4698 ;;  divisor         4    0[COMMON] unsigned long 
  4699 ;;  dividend        4    4[COMMON] unsigned long 
  4700 ;; Auto vars:     Size  Location     Type
  4701 ;;  quotient        4    9[COMMON] unsigned long 
  4702 ;;  counter         1   13[COMMON] unsigned char 
  4703 ;; Return value:  Size  Location     Type
  4704 ;;                  4    0[COMMON] unsigned long 
  4705 ;; Registers used:
  4706 ;;		wreg, status,2, status,0
  4707 ;; Tracked objects:
  4708 ;;		On entry : 0/0
  4709 ;;		On exit  : 0/0
  4710 ;;		Unchanged: 0/0
  4711 ;; Data sizes:     COMMON   BANK0   BANK1   BANK3   BANK2
  4712 ;;      Params:         8       0       0       0       0
  4713 ;;      Locals:         5       0       0       0       0
  4714 ;;      Temps:          1       0       0       0       0
  4715 ;;      Totals:        14       0       0       0       0
  4716 ;;Total ram usage:       14 bytes
  4717 ;; Hardware stack levels used:    1
  4718 ;; This function calls:
  4719 ;;		Nothing
  4720 ;; This function is called by:
  4721 ;;		_GLCD_DisplayNumber
  4722 ;; This function uses a non-reentrant model
  4723 ;;
  4724                           
  4725                           
  4726                           ;psect for function ___lldiv
  4727  0171                     ___lldiv:	
  4728                           
  4729                           ;incstack = 0
  4730                           ; Regs used in ___lldiv: [wreg+status,2+status,0]
  4731  0171  3000               	movlw	0
  4732  0172  00FC               	movwf	___lldiv@quotient+3
  4733  0173  3000               	movlw	0
  4734  0174  00FB               	movwf	___lldiv@quotient+2
  4735  0175  3000               	movlw	0
  4736  0176  00FA               	movwf	___lldiv@quotient+1
  4737  0177  3000               	movlw	0
  4738  0178  00F9               	movwf	___lldiv@quotient
  4739  0179  0873               	movf	___lldiv@divisor+3,w
  4740  017A  0472               	iorwf	___lldiv@divisor+2,w
  4741  017B  0471               	iorwf	___lldiv@divisor+1,w
  4742  017C  0470               	iorwf	___lldiv@divisor,w
  4743  017D  1903               	skipnz
  4744  017E  29C6               	goto	l1621
  4745  017F  01FD               	clrf	___lldiv@counter
  4746  0180  0AFD               	incf	___lldiv@counter,f
  4747  0181                     l1607:	
  4748  0181  1BF3               	btfsc	___lldiv@divisor+3,7
  4749  0182  2991               	goto	l1609
  4750  0183  3001               	movlw	1
  4751  0184  00F8               	movwf	??___lldiv
  4752  0185                     u1445:	
  4753  0185  1003               	clrc
  4754  0186  0DF0               	rlf	___lldiv@divisor,f
  4755  0187  0DF1               	rlf	___lldiv@divisor+1,f
  4756  0188  0DF2               	rlf	___lldiv@divisor+2,f
  4757  0189  0DF3               	rlf	___lldiv@divisor+3,f
  4758  018A  0BF8               	decfsz	??___lldiv,f
  4759  018B  2985               	goto	u1445
  4760  018C  3001               	movlw	1
  4761  018D  00F8               	movwf	??___lldiv
  4762  018E  0878               	movf	??___lldiv,w
  4763  018F  07FD               	addwf	___lldiv@counter,f
  4764  0190  2981               	goto	l1607
  4765  0191                     l1609:	
  4766  0191  3001               	movlw	1
  4767  0192  00F8               	movwf	??___lldiv
  4768  0193                     u1465:	
  4769  0193  1003               	clrc
  4770  0194  0DF9               	rlf	___lldiv@quotient,f
  4771  0195  0DFA               	rlf	___lldiv@quotient+1,f
  4772  0196  0DFB               	rlf	___lldiv@quotient+2,f
  4773  0197  0DFC               	rlf	___lldiv@quotient+3,f
  4774  0198  0BF8               	decfsz	??___lldiv,f
  4775  0199  2993               	goto	u1465
  4776  019A  0873               	movf	___lldiv@divisor+3,w
  4777  019B  0277               	subwf	___lldiv@dividend+3,w
  4778  019C  1D03               	skipz
  4779  019D  29A8               	goto	u1475
  4780  019E  0872               	movf	___lldiv@divisor+2,w
  4781  019F  0276               	subwf	___lldiv@dividend+2,w
  4782  01A0  1D03               	skipz
  4783  01A1  29A8               	goto	u1475
  4784  01A2  0871               	movf	___lldiv@divisor+1,w
  4785  01A3  0275               	subwf	___lldiv@dividend+1,w
  4786  01A4  1D03               	skipz
  4787  01A5  29A8               	goto	u1475
  4788  01A6  0870               	movf	___lldiv@divisor,w
  4789  01A7  0274               	subwf	___lldiv@dividend,w
  4790  01A8                     u1475:	
  4791  01A8  1C03               	skipc
  4792  01A9  29B9               	goto	l1617
  4793  01AA  0870               	movf	___lldiv@divisor,w
  4794  01AB  02F4               	subwf	___lldiv@dividend,f
  4795  01AC  0871               	movf	___lldiv@divisor+1,w
  4796  01AD  1C03               	skipc
  4797  01AE  0F71               	incfsz	___lldiv@divisor+1,w
  4798  01AF  02F5               	subwf	___lldiv@dividend+1,f
  4799  01B0  0872               	movf	___lldiv@divisor+2,w
  4800  01B1  1C03               	skipc
  4801  01B2  0F72               	incfsz	___lldiv@divisor+2,w
  4802  01B3  02F6               	subwf	___lldiv@dividend+2,f
  4803  01B4  0873               	movf	___lldiv@divisor+3,w
  4804  01B5  1C03               	skipc
  4805  01B6  0F73               	incfsz	___lldiv@divisor+3,w
  4806  01B7  02F7               	subwf	___lldiv@dividend+3,f
  4807  01B8  1479               	bsf	___lldiv@quotient,0
  4808  01B9                     l1617:	
  4809  01B9  3001               	movlw	1
  4810  01BA                     u1485:	
  4811  01BA  1003               	clrc
  4812  01BB  0CF3               	rrf	___lldiv@divisor+3,f
  4813  01BC  0CF2               	rrf	___lldiv@divisor+2,f
  4814  01BD  0CF1               	rrf	___lldiv@divisor+1,f
  4815  01BE  0CF0               	rrf	___lldiv@divisor,f
  4816  01BF  3EFF               	addlw	-1
  4817  01C0  1D03               	skipz
  4818  01C1  29BA               	goto	u1485
  4819  01C2  3001               	movlw	1
  4820  01C3  02FD               	subwf	___lldiv@counter,f
  4821  01C4  1D03               	btfss	3,2
  4822  01C5  2991               	goto	l1609
  4823  01C6                     l1621:	
  4824  01C6  087C               	movf	___lldiv@quotient+3,w
  4825  01C7  00F3               	movwf	?___lldiv+3
  4826  01C8  087B               	movf	___lldiv@quotient+2,w
  4827  01C9  00F2               	movwf	?___lldiv+2
  4828  01CA  087A               	movf	___lldiv@quotient+1,w
  4829  01CB  00F1               	movwf	?___lldiv+1
  4830  01CC  0879               	movf	___lldiv@quotient,w
  4831  01CD  00F0               	movwf	?___lldiv
  4832  01CE  0008               	return
  4833  01CF                     __end_of___lldiv:	
  4834                           
  4835                           	psect	text13
  4836  0EEE                     __ptext13:	
  4837 ;; *************** function ___bmul *****************
  4838 ;; Defined at:
  4839 ;;		line 4 in file "C:\Program Files\Microchip\xc8\v1.36\sources\common\Umul8.c"
  4840 ;; Parameters:    Size  Location     Type
  4841 ;;  multiplier      1    wreg     unsigned char 
  4842 ;;  multiplicand    1    0[BANK0 ] unsigned char 
  4843 ;; Auto vars:     Size  Location     Type
  4844 ;;  multiplier      1    3[BANK0 ] unsigned char 
  4845 ;;  product         1    2[BANK0 ] unsigned char 
  4846 ;; Return value:  Size  Location     Type
  4847 ;;                  1    wreg      unsigned char 
  4848 ;; Registers used:
  4849 ;;		wreg, status,2, status,0
  4850 ;; Tracked objects:
  4851 ;;		On entry : 0/0
  4852 ;;		On exit  : 0/0
  4853 ;;		Unchanged: 0/0
  4854 ;; Data sizes:     COMMON   BANK0   BANK1   BANK3   BANK2
  4855 ;;      Params:         0       1       0       0       0
  4856 ;;      Locals:         0       2       0       0       0
  4857 ;;      Temps:          0       1       0       0       0
  4858 ;;      Totals:         0       4       0       0       0
  4859 ;;Total ram usage:        4 bytes
  4860 ;; Hardware stack levels used:    1
  4861 ;; This function calls:
  4862 ;;		Nothing
  4863 ;; This function is called by:
  4864 ;;		_GLCD_DisplayNumber
  4865 ;;		_GLCD_Printf
  4866 ;; This function uses a non-reentrant model
  4867 ;;
  4868                           
  4869                           
  4870                           ;psect for function ___bmul
  4871  0EEE                     ___bmul:	
  4872                           
  4873                           ;incstack = 0
  4874                           ; Regs used in ___bmul: [wreg+status,2+status,0]
  4875                           ;___bmul@multiplier stored from wreg
  4876  0EEE  1283               	bcf	3,5	;RP0=0, select bank0
  4877  0EEF  1303               	bcf	3,6	;RP1=0, select bank0
  4878  0EF0  00A3               	movwf	___bmul@multiplier
  4879  0EF1  01A2               	clrf	___bmul@product
  4880  0EF2                     l1507:	
  4881  0EF2  1C23               	btfss	___bmul@multiplier,0
  4882  0EF3  2EF8               	goto	l1511
  4883  0EF4  0820               	movf	___bmul@multiplicand,w
  4884  0EF5  00A1               	movwf	??___bmul
  4885  0EF6  0821               	movf	??___bmul,w
  4886  0EF7  07A2               	addwf	___bmul@product,f
  4887  0EF8                     l1511:	
  4888  0EF8  1003               	clrc
  4889  0EF9  0DA0               	rlf	___bmul@multiplicand,f
  4890  0EFA  1003               	clrc
  4891  0EFB  0CA3               	rrf	___bmul@multiplier,f
  4892  0EFC  0823               	movf	___bmul@multiplier,w
  4893  0EFD  1D03               	btfss	3,2
  4894  0EFE  2EF2               	goto	l1507
  4895  0EFF  0822               	movf	___bmul@product,w
  4896  0F00  0008               	return
  4897  0F01                     __end_of___bmul:	
  4898                           
  4899                           	psect	text14
  4900  02B2                     __ptext14:	
  4901 ;; *************** function _GLCD_DisplayChar *****************
  4902 ;; Defined at:
  4903 ;;		line 213 in file "../00-libfiles/glcd.c"
  4904 ;; Parameters:    Size  Location     Type
  4905 ;;  ch              1    wreg     unsigned char 
  4906 ;; Auto vars:     Size  Location     Type
  4907 ;;  ch              1    9[COMMON] unsigned char 
  4908 ;;  i               1    8[COMMON] unsigned char 
  4909 ;;  dat             1    7[COMMON] unsigned char 
  4910 ;; Return value:  Size  Location     Type
  4911 ;;                  1    wreg      void 
  4912 ;; Registers used:
  4913 ;;		wreg, fsr0l, fsr0h, status,2, status,0, btemp+1, pclath, cstack
  4914 ;; Tracked objects:
  4915 ;;		On entry : 0/0
  4916 ;;		On exit  : 0/0
  4917 ;;		Unchanged: 0/0
  4918 ;; Data sizes:     COMMON   BANK0   BANK1   BANK3   BANK2
  4919 ;;      Params:         0       0       0       0       0
  4920 ;;      Locals:         3       0       0       0       0
  4921 ;;      Temps:          0       9       0       0       0
  4922 ;;      Totals:         3       9       0       0       0
  4923 ;;Total ram usage:       12 bytes
  4924 ;; Hardware stack levels used:    1
  4925 ;; Hardware stack levels required when called:    5
  4926 ;; This function calls:
  4927 ;;		_GLCD_GoToNextLine
  4928 ;;		_GLCD_GoToPage
  4929 ;;		___wmul
  4930 ;;		_glcd_DataWrite
  4931 ;; This function is called by:
  4932 ;;		_GLCD_DisplayString
  4933 ;;		_GLCD_DisplayNumber
  4934 ;;		_GLCD_Printf
  4935 ;; This function uses a non-reentrant model
  4936 ;;
  4937                           
  4938                           
  4939                           ;psect for function _GLCD_DisplayChar
  4940  02B2                     _GLCD_DisplayChar:	
  4941                           
  4942                           ;incstack = 0
  4943 ;; using string table level
  4944                           ; Regs used in _GLCD_DisplayChar: [wreg-fsr0h+status,2+status,0+btemp+1+pclath+cstack]
  4945                           ;GLCD_DisplayChar@ch stored from wreg
  4946  02B2  00F9               	movwf	GLCD_DisplayChar@ch
  4947                           
  4948                           ;glcd.c: 215: uint8_t dat,i=0;
  4949  02B3  01F8               	clrf	GLCD_DisplayChar@i
  4950                           
  4951                           ;glcd.c: 218: if(((GLCD.PageNum == 0x01) && ((GLCD.CursorPos+5)>=128)) || (ch=='\n'))
  4952  02B4  1283               	bcf	3,5	;RP0=0, select bank0
  4953  02B5  1303               	bcf	3,6	;RP1=0, select bank0
  4954  02B6  036A               	decf	_GLCD,w
  4955  02B7  1D03               	btfss	3,2
  4956  02B8  2ACB               	goto	l1473
  4957  02B9  086C               	movf	_GLCD+2,w
  4958  02BA  3E05               	addlw	5
  4959  02BB  00A0               	movwf	??_GLCD_DisplayChar
  4960  02BC  3000               	movlw	0
  4961  02BD  1803               	skipnc
  4962  02BE  3001               	movlw	1
  4963  02BF  00A1               	movwf	??_GLCD_DisplayChar+1
  4964  02C0  0821               	movf	??_GLCD_DisplayChar+1,w
  4965  02C1  3A80               	xorlw	128
  4966  02C2  00FF               	movwf	127
  4967  02C3  3080               	movlw	128
  4968  02C4  027F               	subwf	127,w
  4969  02C5  1D03               	skipz
  4970  02C6  2AC9               	goto	u1155
  4971  02C7  3080               	movlw	128
  4972  02C8  0220               	subwf	??_GLCD_DisplayChar,w
  4973  02C9                     u1155:	
  4974  02C9  1803               	skipnc
  4975  02CA  2ACF               	goto	l1475
  4976  02CB                     l1473:	
  4977  02CB  300A               	movlw	10
  4978  02CC  0679               	xorwf	GLCD_DisplayChar@ch,w
  4979  02CD  1D03               	btfss	3,2
  4980  02CE  2AD4               	goto	l1477
  4981  02CF                     l1475:	
  4982                           
  4983                           ;glcd.c: 219: {
  4984                           ;glcd.c: 222: GLCD_GoToNextLine();
  4985  02CF  120A  158A  26DB  120A  118A  	fcall	_GLCD_GoToNextLine
  4986  02D4                     l1477:	
  4987                           
  4988                           ;glcd.c: 223: }
  4989                           ;glcd.c: 224: if(ch!='\n')
  4990  02D4  300A               	movlw	10
  4991  02D5  0679               	xorwf	GLCD_DisplayChar@ch,w
  4992  02D6  1903               	btfsc	3,2
  4993  02D7  0008               	return
  4994                           
  4995                           ;glcd.c: 225: {
  4996                           ;glcd.c: 226: ch = ch-0x20;
  4997  02D8  0879               	movf	GLCD_DisplayChar@ch,w
  4998  02D9  3EE0               	addlw	224
  4999  02DA  1283               	bcf	3,5	;RP0=0, select bank0
  5000  02DB  1303               	bcf	3,6	;RP1=0, select bank0
  5001  02DC  00A0               	movwf	??_GLCD_DisplayChar
  5002  02DD  0820               	movf	??_GLCD_DisplayChar,w
  5003  02DE  00F9               	movwf	GLCD_DisplayChar@ch
  5004  02DF                     l90:	
  5005                           ;glcd.c: 228: while(1)
  5006                           
  5007                           
  5008                           ;glcd.c: 229: {
  5009                           ;glcd.c: 230: if((GLCD.PageNum == 0x00) && (GLCD.CursorPos==0x80))
  5010  02DF  086A               	movf	_GLCD,w
  5011  02E0  1D03               	btfss	3,2
  5012  02E1  2AEC               	goto	l1485
  5013  02E2  3080               	movlw	128
  5014  02E3  066C               	xorwf	_GLCD+2,w
  5015  02E4  1D03               	btfss	3,2
  5016  02E5  2AEC               	goto	l1485
  5017                           
  5018                           ;glcd.c: 231: {
  5019                           ;glcd.c: 234: GLCD_GoToPage(1);
  5020  02E6  3001               	movlw	1
  5021  02E7  120A  158A  278A  120A  118A  	fcall	_GLCD_GoToPage
  5022  02EC                     l1485:	
  5023                           
  5024                           ;glcd.c: 235: }
  5025                           ;glcd.c: 237: dat= A_GlcdFontTable_U8[ch][i];
  5026  02EC  0878               	movf	GLCD_DisplayChar@i,w
  5027  02ED  1283               	bcf	3,5	;RP0=0, select bank0
  5028  02EE  1303               	bcf	3,6	;RP1=0, select bank0
  5029  02EF  00A0               	movwf	??_GLCD_DisplayChar
  5030  02F0  01A1               	clrf	??_GLCD_DisplayChar+1
  5031  02F1  0879               	movf	GLCD_DisplayChar@ch,w
  5032  02F2  00A2               	movwf	??_GLCD_DisplayChar+2
  5033  02F3  01A3               	clrf	??_GLCD_DisplayChar+3
  5034  02F4  0822               	movf	??_GLCD_DisplayChar+2,w
  5035  02F5  00F0               	movwf	___wmul@multiplier
  5036  02F6  0823               	movf	??_GLCD_DisplayChar+3,w
  5037  02F7  00F1               	movwf	___wmul@multiplier+1
  5038  02F8  3005               	movlw	5
  5039  02F9  00F2               	movwf	___wmul@multiplicand
  5040  02FA  3000               	movlw	0
  5041  02FB  00F3               	movwf	___wmul@multiplicand+1
  5042  02FC  120A  158A  2769  120A  118A  	fcall	___wmul
  5043  0301  3012               	movlw	low (_A_GlcdFontTable_U8| (0+32768))
  5044  0302  1283               	bcf	3,5	;RP0=0, select bank0
  5045  0303  1303               	bcf	3,6	;RP1=0, select bank0
  5046  0304  00A4               	movwf	??_GLCD_DisplayChar+4
  5047  0305  3088               	movlw	high (_A_GlcdFontTable_U8| (0+32768))
  5048  0306  00A5               	movwf	??_GLCD_DisplayChar+5
  5049  0307  0870               	movf	?___wmul,w
  5050  0308  0724               	addwf	??_GLCD_DisplayChar+4,w
  5051  0309  00A6               	movwf	??_GLCD_DisplayChar+6
  5052  030A  0871               	movf	?___wmul+1,w
  5053  030B  1803               	skipnc
  5054  030C  0A71               	incf	?___wmul+1,w
  5055  030D  0725               	addwf	??_GLCD_DisplayChar+5,w
  5056  030E  00A7               	movwf	??_GLCD_DisplayChar+7
  5057  030F  0820               	movf	??_GLCD_DisplayChar,w
  5058  0310  0726               	addwf	??_GLCD_DisplayChar+6,w
  5059  0311  0084               	movwf	4
  5060  0312  0821               	movf	??_GLCD_DisplayChar+1,w
  5061  0313  1803               	skipnc
  5062  0314  0A21               	incf	??_GLCD_DisplayChar+1,w
  5063  0315  0727               	addwf	??_GLCD_DisplayChar+7,w
  5064  0316  00FF               	movwf	127
  5065  0317  120A  158A  2000  120A  118A  	fcall	stringtab
  5066  031C  00A8               	movwf	??_GLCD_DisplayChar+8
  5067  031D  0828               	movf	??_GLCD_DisplayChar+8,w
  5068  031E  00F7               	movwf	GLCD_DisplayChar@dat
  5069                           
  5070                           ;glcd.c: 240: glcd_DataWrite(dat);
  5071  031F  0877               	movf	GLCD_DisplayChar@dat,w
  5072  0320  120A  158A  2729  120A  118A  	fcall	_glcd_DataWrite
  5073                           
  5074                           ;glcd.c: 241: GLCD.CursorPos++;
  5075  0325  3001               	movlw	1
  5076  0326  1283               	bcf	3,5	;RP0=0, select bank0
  5077  0327  1303               	bcf	3,6	;RP1=0, select bank0
  5078  0328  00A0               	movwf	??_GLCD_DisplayChar
  5079  0329  0820               	movf	??_GLCD_DisplayChar,w
  5080  032A  07EC               	addwf	_GLCD+2,f
  5081                           
  5082                           ;glcd.c: 243: i++;
  5083  032B  3001               	movlw	1
  5084  032C  00A0               	movwf	??_GLCD_DisplayChar
  5085  032D  0820               	movf	??_GLCD_DisplayChar,w
  5086  032E  07F8               	addwf	GLCD_DisplayChar@i,f
  5087                           
  5088                           ;glcd.c: 245: if(i==5)
  5089  032F  3005               	movlw	5
  5090  0330  0678               	xorwf	GLCD_DisplayChar@i,w
  5091  0331  1D03               	btfss	3,2
  5092  0332  2ADF               	goto	l90
  5093                           
  5094                           ;glcd.c: 246: {
  5095                           ;glcd.c: 247: glcd_DataWrite(0x00);
  5096  0333  3000               	movlw	0
  5097  0334  120A  158A  2729   	fcall	_glcd_DataWrite
  5098                           
  5099                           ;glcd.c: 248: GLCD.CursorPos++;
  5100  0337  3001               	movlw	1
  5101  0338  1283               	bcf	3,5	;RP0=0, select bank0
  5102  0339  1303               	bcf	3,6	;RP1=0, select bank0
  5103  033A  00A0               	movwf	??_GLCD_DisplayChar
  5104  033B  0820               	movf	??_GLCD_DisplayChar,w
  5105  033C  07EC               	addwf	_GLCD+2,f
  5106                           
  5107                           ;glcd.c: 249: break;
  5108  033D  0008               	return
  5109  033E                     __end_of_GLCD_DisplayChar:	
  5110                           
  5111                           	psect	text15
  5112  0F69                     __ptext15:	
  5113 ;; *************** function ___wmul *****************
  5114 ;; Defined at:
  5115 ;;		line 15 in file "C:\Program Files\Microchip\xc8\v1.36\sources\common\Umul16.c"
  5116 ;; Parameters:    Size  Location     Type
  5117 ;;  multiplier      2    0[COMMON] unsigned int 
  5118 ;;  multiplicand    2    2[COMMON] unsigned int 
  5119 ;; Auto vars:     Size  Location     Type
  5120 ;;  product         2    4[COMMON] unsigned int 
  5121 ;; Return value:  Size  Location     Type
  5122 ;;                  2    0[COMMON] unsigned int 
  5123 ;; Registers used:
  5124 ;;		wreg, status,2, status,0
  5125 ;; Tracked objects:
  5126 ;;		On entry : 0/0
  5127 ;;		On exit  : 0/0
  5128 ;;		Unchanged: 0/0
  5129 ;; Data sizes:     COMMON   BANK0   BANK1   BANK3   BANK2
  5130 ;;      Params:         4       0       0       0       0
  5131 ;;      Locals:         2       0       0       0       0
  5132 ;;      Temps:          0       0       0       0       0
  5133 ;;      Totals:         6       0       0       0       0
  5134 ;;Total ram usage:        6 bytes
  5135 ;; Hardware stack levels used:    1
  5136 ;; This function calls:
  5137 ;;		Nothing
  5138 ;; This function is called by:
  5139 ;;		_GLCD_DisplayChar
  5140 ;; This function uses a non-reentrant model
  5141 ;;
  5142                           
  5143                           
  5144                           ;psect for function ___wmul
  5145  0F69                     ___wmul:	
  5146                           
  5147                           ;incstack = 0
  5148                           ; Regs used in ___wmul: [wreg+status,2+status,0]
  5149  0F69  01F4               	clrf	___wmul@product
  5150  0F6A  01F5               	clrf	___wmul@product+1
  5151  0F6B                     l1455:	
  5152  0F6B  1C70               	btfss	___wmul@multiplier,0
  5153  0F6C  2F73               	goto	l333
  5154  0F6D  0872               	movf	___wmul@multiplicand,w
  5155  0F6E  07F4               	addwf	___wmul@product,f
  5156  0F6F  1803               	skipnc
  5157  0F70  0AF5               	incf	___wmul@product+1,f
  5158  0F71  0873               	movf	___wmul@multiplicand+1,w
  5159  0F72  07F5               	addwf	___wmul@product+1,f
  5160  0F73                     l333:	
  5161  0F73  3001               	movlw	1
  5162  0F74                     u1115:	
  5163  0F74  1003               	clrc
  5164  0F75  0DF2               	rlf	___wmul@multiplicand,f
  5165  0F76  0DF3               	rlf	___wmul@multiplicand+1,f
  5166  0F77  3EFF               	addlw	-1
  5167  0F78  1D03               	skipz
  5168  0F79  2F74               	goto	u1115
  5169  0F7A  3001               	movlw	1
  5170  0F7B                     u1125:	
  5171  0F7B  1003               	clrc
  5172  0F7C  0CF1               	rrf	___wmul@multiplier+1,f
  5173  0F7D  0CF0               	rrf	___wmul@multiplier,f
  5174  0F7E  3EFF               	addlw	-1
  5175  0F7F  1D03               	skipz
  5176  0F80  2F7B               	goto	u1125
  5177  0F81  0870               	movf	___wmul@multiplier,w
  5178  0F82  0471               	iorwf	___wmul@multiplier+1,w
  5179  0F83  1D03               	btfss	3,2
  5180  0F84  2F6B               	goto	l1455
  5181  0F85  0875               	movf	___wmul@product+1,w
  5182  0F86  00F1               	movwf	?___wmul+1
  5183  0F87  0874               	movf	___wmul@product,w
  5184  0F88  00F0               	movwf	?___wmul
  5185  0F89  0008               	return
  5186  0F8A                     __end_of___wmul:	
  5187                           
  5188                           	psect	text16
  5189  0EDB                     __ptext16:	
  5190 ;; *************** function _GLCD_GoToNextLine *****************
  5191 ;; Defined at:
  5192 ;;		line 789 in file "../00-libfiles/glcd.c"
  5193 ;; Parameters:    Size  Location     Type
  5194 ;;		None
  5195 ;; Auto vars:     Size  Location     Type
  5196 ;;		None
  5197 ;; Return value:  Size  Location     Type
  5198 ;;                  1    wreg      void 
  5199 ;; Registers used:
  5200 ;;		wreg, status,2, status,0, pclath, cstack
  5201 ;; Tracked objects:
  5202 ;;		On entry : 0/0
  5203 ;;		On exit  : 0/0
  5204 ;;		Unchanged: 0/0
  5205 ;; Data sizes:     COMMON   BANK0   BANK1   BANK3   BANK2
  5206 ;;      Params:         0       0       0       0       0
  5207 ;;      Locals:         0       0       0       0       0
  5208 ;;      Temps:          1       0       0       0       0
  5209 ;;      Totals:         1       0       0       0       0
  5210 ;;Total ram usage:        1 bytes
  5211 ;; Hardware stack levels used:    1
  5212 ;; Hardware stack levels required when called:    4
  5213 ;; This function calls:
  5214 ;;		_GLCD_GoToPage
  5215 ;; This function is called by:
  5216 ;;		_GLCD_DisplayChar
  5217 ;; This function uses a non-reentrant model
  5218 ;;
  5219                           
  5220                           
  5221                           ;psect for function _GLCD_GoToNextLine
  5222  0EDB                     _GLCD_GoToNextLine:	
  5223                           
  5224                           ;glcd.c: 793: GLCD.LineNum++;
  5225                           
  5226                           ;incstack = 0
  5227                           ; Regs used in _GLCD_GoToNextLine: [wreg+status,2+status,0+pclath+cstack]
  5228  0EDB  3001               	movlw	1
  5229  0EDC  00F6               	movwf	??_GLCD_GoToNextLine
  5230  0EDD  0876               	movf	??_GLCD_GoToNextLine,w
  5231  0EDE  1283               	bcf	3,5	;RP0=0, select bank0
  5232  0EDF  1303               	bcf	3,6	;RP1=0, select bank0
  5233  0EE0  07EB               	addwf	_GLCD+1,f
  5234                           
  5235                           ;glcd.c: 794: if(GLCD.LineNum > 0xBF)
  5236  0EE1  30C0               	movlw	192
  5237  0EE2  026B               	subwf	_GLCD+1,w
  5238  0EE3  1C03               	skipc
  5239  0EE4  2EE9               	goto	l1439
  5240                           
  5241                           ;glcd.c: 795: GLCD.LineNum = 0xB8;
  5242  0EE5  30B8               	movlw	184
  5243  0EE6  00F6               	movwf	??_GLCD_GoToNextLine
  5244  0EE7  0876               	movf	??_GLCD_GoToNextLine,w
  5245  0EE8  00EB               	movwf	_GLCD+1
  5246  0EE9                     l1439:	
  5247                           
  5248                           ;glcd.c: 796: GLCD_GoToPage(0);
  5249  0EE9  3000               	movlw	0
  5250  0EEA  120A  158A  278A   	fcall	_GLCD_GoToPage
  5251  0EED  0008               	return
  5252  0EEE                     __end_of_GLCD_GoToNextLine:	
  5253                           
  5254                           	psect	text17
  5255  0F8A                     __ptext17:	
  5256 ;; *************** function _GLCD_GoToPage *****************
  5257 ;; Defined at:
  5258 ;;		line 726 in file "../00-libfiles/glcd.c"
  5259 ;; Parameters:    Size  Location     Type
  5260 ;;  pageNumber      1    wreg     unsigned char 
  5261 ;; Auto vars:     Size  Location     Type
  5262 ;;  pageNumber      1    5[COMMON] unsigned char 
  5263 ;; Return value:  Size  Location     Type
  5264 ;;                  1    wreg      void 
  5265 ;; Registers used:
  5266 ;;		wreg, status,2, status,0, pclath, cstack
  5267 ;; Tracked objects:
  5268 ;;		On entry : 0/0
  5269 ;;		On exit  : 0/0
  5270 ;;		Unchanged: 0/0
  5271 ;; Data sizes:     COMMON   BANK0   BANK1   BANK3   BANK2
  5272 ;;      Params:         0       0       0       0       0
  5273 ;;      Locals:         1       0       0       0       0
  5274 ;;      Temps:          1       0       0       0       0
  5275 ;;      Totals:         2       0       0       0       0
  5276 ;;Total ram usage:        2 bytes
  5277 ;; Hardware stack levels used:    1
  5278 ;; Hardware stack levels required when called:    3
  5279 ;; This function calls:
  5280 ;;		_glcd_CmdWrite
  5281 ;;		_glcd_SelectPage0
  5282 ;;		_glcd_SelectPage1
  5283 ;; This function is called by:
  5284 ;;		_GLCD_Init
  5285 ;;		_GLCD_DisplayChar
  5286 ;;		_GLCD_GoToLine
  5287 ;;		_GLCD_GoToNextLine
  5288 ;;		_GLCD_HorizontalGraph
  5289 ;; This function uses a non-reentrant model
  5290 ;;
  5291                           
  5292                           
  5293                           ;psect for function _GLCD_GoToPage
  5294  0F8A                     _GLCD_GoToPage:	
  5295                           
  5296                           ;incstack = 0
  5297                           ; Regs used in _GLCD_GoToPage: [wreg+status,2+status,0+pclath+cstack]
  5298                           ;GLCD_GoToPage@pageNumber stored from wreg
  5299  0F8A  00F5               	movwf	GLCD_GoToPage@pageNumber
  5300                           
  5301                           ;glcd.c: 729: if((pageNumber==0) || (pageNumber ==1))
  5302  0F8B  0875               	movf	GLCD_GoToPage@pageNumber,w
  5303  0F8C  1D03               	btfss	3,2
  5304  0F8D  0375               	decf	GLCD_GoToPage@pageNumber,w
  5305  0F8E  1D03               	btfss	3,2
  5306  0F8F  0008               	return
  5307                           
  5308                           ;glcd.c: 730: {
  5309                           ;glcd.c: 732: if(pageNumber == 0)
  5310  0F90  0875               	movf	GLCD_GoToPage@pageNumber,w
  5311  0F91  1D03               	btfss	3,2
  5312  0F92  2F99               	goto	l1427
  5313                           
  5314                           ;glcd.c: 733: {
  5315                           ;glcd.c: 735: glcd_SelectPage0();
  5316  0F93  120A  158A  26AF  120A  158A  	fcall	_glcd_SelectPage0
  5317                           
  5318                           ;glcd.c: 736: }
  5319  0F98  2F9E               	goto	l1429
  5320  0F99                     l1427:	
  5321                           
  5322                           ;glcd.c: 737: else
  5323                           ;glcd.c: 738: {
  5324                           ;glcd.c: 739: glcd_SelectPage1();
  5325  0F99  120A  158A  26B7  120A  158A  	fcall	_glcd_SelectPage1
  5326  0F9E                     l1429:	
  5327                           
  5328                           ;glcd.c: 740: }
  5329                           ;glcd.c: 742: GLCD.PageNum=pageNumber;
  5330  0F9E  0875               	movf	GLCD_GoToPage@pageNumber,w
  5331  0F9F  00F4               	movwf	??_GLCD_GoToPage
  5332  0FA0  0874               	movf	??_GLCD_GoToPage,w
  5333  0FA1  1283               	bcf	3,5	;RP0=0, select bank0
  5334  0FA2  1303               	bcf	3,6	;RP1=0, select bank0
  5335  0FA3  00EA               	movwf	_GLCD
  5336                           
  5337                           ;glcd.c: 743: GLCD.CursorPos=0x40;
  5338  0FA4  3040               	movlw	64
  5339  0FA5  00F4               	movwf	??_GLCD_GoToPage
  5340  0FA6  0874               	movf	??_GLCD_GoToPage,w
  5341  0FA7  00EC               	movwf	_GLCD+2
  5342                           
  5343                           ;glcd.c: 744: glcd_CmdWrite(GLCD.LineNum);
  5344  0FA8  086B               	movf	_GLCD+1,w
  5345  0FA9  120A  158A  2748  120A  158A  	fcall	_glcd_CmdWrite
  5346                           
  5347                           ;glcd.c: 745: glcd_CmdWrite(GLCD.CursorPos);
  5348  0FAE  1283               	bcf	3,5	;RP0=0, select bank0
  5349  0FAF  1303               	bcf	3,6	;RP1=0, select bank0
  5350  0FB0  086C               	movf	_GLCD+2,w
  5351  0FB1  120A  158A  2748   	fcall	_glcd_CmdWrite
  5352  0FB4  0008               	return
  5353  0FB5                     __end_of_GLCD_GoToPage:	
  5354                           
  5355                           	psect	text18
  5356  006C                     __ptext18:	
  5357 ;; *************** function _GLCD_DisplayLogo *****************
  5358 ;; Defined at:
  5359 ;;		line 863 in file "../00-libfiles/glcd.c"
  5360 ;; Parameters:    Size  Location     Type
  5361 ;;  ptr_Logo        2    4[COMMON] PTR const unsigned char 
  5362 ;;		 -> LogoBitMap(1024), 
  5363 ;; Auto vars:     Size  Location     Type
  5364 ;;  line            1    8[COMMON] unsigned char 
  5365 ;;  cursor          1    7[COMMON] unsigned char 
  5366 ;; Return value:  Size  Location     Type
  5367 ;;                  1    wreg      void 
  5368 ;; Registers used:
  5369 ;;		wreg, fsr0l, fsr0h, status,2, status,0, btemp+1, pclath, cstack
  5370 ;; Tracked objects:
  5371 ;;		On entry : 0/0
  5372 ;;		On exit  : 0/0
  5373 ;;		Unchanged: 0/0
  5374 ;; Data sizes:     COMMON   BANK0   BANK1   BANK3   BANK2
  5375 ;;      Params:         2       0       0       0       0
  5376 ;;      Locals:         2       0       0       0       0
  5377 ;;      Temps:          1       0       0       0       0
  5378 ;;      Totals:         5       0       0       0       0
  5379 ;;Total ram usage:        5 bytes
  5380 ;; Hardware stack levels used:    1
  5381 ;; Hardware stack levels required when called:    3
  5382 ;; This function calls:
  5383 ;;		_glcd_CmdWrite
  5384 ;;		_glcd_DataWrite
  5385 ;;		_glcd_SelectPage0
  5386 ;;		_glcd_SelectPage1
  5387 ;; This function is called by:
  5388 ;;		_main
  5389 ;; This function uses a non-reentrant model
  5390 ;;
  5391                           
  5392                           
  5393                           ;psect for function _GLCD_DisplayLogo
  5394  006C                     _GLCD_DisplayLogo:	
  5395                           
  5396                           ;glcd.c: 865: uint8_t line,cursor;
  5397                           ;glcd.c: 867: for(line=0;line<8;line++)
  5398                           
  5399                           ;incstack = 0
  5400                           ; Regs used in _GLCD_DisplayLogo: [wreg-fsr0h+status,2+status,0+btemp+1+pclath+cstack]
  5401  006C  01F8               	clrf	GLCD_DisplayLogo@line
  5402  006D                     L5:	
  5403  006D  3008               	movlw	8
  5404  006E  0278               	subwf	GLCD_DisplayLogo@line,w
  5405  006F  1803               	btfsc	3,0
  5406  0070  0008               	return
  5407                           
  5408                           ;glcd.c: 868: {
  5409                           ;glcd.c: 869: glcd_SelectPage0();
  5410  0071  120A  158A  26AF  120A  118A  	fcall	_glcd_SelectPage0
  5411                           
  5412                           ;glcd.c: 870: glcd_CmdWrite(0x40);
  5413  0076  3040               	movlw	64
  5414  0077  120A  158A  2748  120A  118A  	fcall	_glcd_CmdWrite
  5415                           
  5416                           ;glcd.c: 871: glcd_CmdWrite(0xB8+line);
  5417  007C  0878               	movf	GLCD_DisplayLogo@line,w
  5418  007D  3EB8               	addlw	184
  5419  007E  120A  158A  2748  120A  118A  	fcall	_glcd_CmdWrite
  5420                           
  5421                           ;glcd.c: 872: for(cursor=0;cursor<128;cursor++)
  5422  0083  01F7               	clrf	GLCD_DisplayLogo@cursor
  5423  0084  3080               	movlw	128
  5424  0085  0277               	subwf	GLCD_DisplayLogo@cursor,w
  5425  0086  1803               	btfsc	3,0
  5426  0087  28BC               	goto	l1809
  5427  0088                     l1797:	
  5428                           
  5429                           ;glcd.c: 873: {
  5430                           ;glcd.c: 874: if(cursor==64)
  5431  0088  3040               	movlw	64
  5432  0089  0677               	xorwf	GLCD_DisplayLogo@cursor,w
  5433  008A  1D03               	btfss	3,2
  5434  008B  289E               	goto	l1801
  5435                           
  5436                           ;glcd.c: 875: {
  5437                           ;glcd.c: 876: glcd_SelectPage1();
  5438  008C  120A  158A  26B7  120A  118A  	fcall	_glcd_SelectPage1
  5439                           
  5440                           ;glcd.c: 877: glcd_CmdWrite(0x40);
  5441  0091  3040               	movlw	64
  5442  0092  120A  158A  2748  120A  118A  	fcall	_glcd_CmdWrite
  5443                           
  5444                           ;glcd.c: 878: glcd_CmdWrite(0xB8+line);
  5445  0097  0878               	movf	GLCD_DisplayLogo@line,w
  5446  0098  3EB8               	addlw	184
  5447  0099  120A  158A  2748  120A  118A  	fcall	_glcd_CmdWrite
  5448  009E                     l1801:	
  5449                           
  5450                           ;glcd.c: 879: }
  5451                           ;glcd.c: 880: glcd_DataWrite(*ptr_Logo++);
  5452  009E  0875               	movf	GLCD_DisplayLogo@ptr_Logo+1,w
  5453  009F  1283               	bcf	3,5	;RP0=0, select bank0
  5454  00A0  1303               	bcf	3,6	;RP1=0, select bank0
  5455  00A1  00FF               	movwf	127
  5456  00A2  0874               	movf	GLCD_DisplayLogo@ptr_Logo,w
  5457  00A3  0084               	movwf	4
  5458  00A4  120A  158A  2000  120A  118A  	fcall	stringtab
  5459  00A9  120A  158A  2729  120A  118A  	fcall	_glcd_DataWrite
  5460  00AE  3001               	movlw	1
  5461  00AF  07F4               	addwf	GLCD_DisplayLogo@ptr_Logo,f
  5462  00B0  1803               	skipnc
  5463  00B1  0AF5               	incf	GLCD_DisplayLogo@ptr_Logo+1,f
  5464  00B2  3000               	movlw	0
  5465  00B3  07F5               	addwf	GLCD_DisplayLogo@ptr_Logo+1,f
  5466  00B4  3001               	movlw	1
  5467  00B5  00F6               	movwf	??_GLCD_DisplayLogo
  5468  00B6  0876               	movf	??_GLCD_DisplayLogo,w
  5469  00B7  07F7               	addwf	GLCD_DisplayLogo@cursor,f
  5470  00B8  3080               	movlw	128
  5471  00B9  0277               	subwf	GLCD_DisplayLogo@cursor,w
  5472  00BA  1C03               	skipc
  5473  00BB  2888               	goto	l1797
  5474  00BC                     l1809:	
  5475  00BC  3001               	movlw	1
  5476  00BD  00F6               	movwf	??_GLCD_DisplayLogo
  5477  00BE  0876               	movf	??_GLCD_DisplayLogo,w
  5478  00BF  07F8               	addwf	GLCD_DisplayLogo@line,f
  5479  00C0  286D               	goto	L5
  5480  00C1                     __end_of_GLCD_DisplayLogo:	
  5481                           
  5482                           	psect	text19
  5483  0EB7                     __ptext19:	
  5484 ;; *************** function _glcd_SelectPage1 *****************
  5485 ;; Defined at:
  5486 ;;		line 1081 in file "../00-libfiles/glcd.c"
  5487 ;; Parameters:    Size  Location     Type
  5488 ;;		None
  5489 ;; Auto vars:     Size  Location     Type
  5490 ;;		None
  5491 ;; Return value:  Size  Location     Type
  5492 ;;                  1    wreg      void 
  5493 ;; Registers used:
  5494 ;;		wreg, status,2, status,0
  5495 ;; Tracked objects:
  5496 ;;		On entry : 0/0
  5497 ;;		On exit  : 0/0
  5498 ;;		Unchanged: 0/0
  5499 ;; Data sizes:     COMMON   BANK0   BANK1   BANK3   BANK2
  5500 ;;      Params:         0       0       0       0       0
  5501 ;;      Locals:         0       0       0       0       0
  5502 ;;      Temps:          1       0       0       0       0
  5503 ;;      Totals:         1       0       0       0       0
  5504 ;;Total ram usage:        1 bytes
  5505 ;; Hardware stack levels used:    1
  5506 ;; This function calls:
  5507 ;;		Nothing
  5508 ;; This function is called by:
  5509 ;;		_GLCD_Init
  5510 ;;		_GLCD_Clear
  5511 ;;		_GLCD_GoToPage
  5512 ;;		_GLCD_SetCursor
  5513 ;;		_GLCD_DisplayLogo
  5514 ;; This function uses a non-reentrant model
  5515 ;;
  5516                           
  5517                           
  5518                           ;psect for function _glcd_SelectPage1
  5519  0EB7                     _glcd_SelectPage1:	
  5520                           
  5521                           ;glcd.c: 1083: (((PORTD)) |= (1<<((4))));
  5522                           
  5523                           ;incstack = 0
  5524                           ; Regs used in _glcd_SelectPage1: [wreg+status,2+status,0]
  5525  0EB7  1283               	bcf	3,5	;RP0=0, select bank0
  5526  0EB8  1303               	bcf	3,6	;RP1=0, select bank0
  5527  0EB9  1608               	bsf	8,4	;volatile
  5528                           
  5529                           ;glcd.c: 1084: (((PORTD)) &= ~(1<<((3))));
  5530  0EBA  30F7               	movlw	247
  5531  0EBB  00F0               	movwf	??_glcd_SelectPage1
  5532  0EBC  0870               	movf	??_glcd_SelectPage1,w
  5533  0EBD  0588               	andwf	8,f	;volatile
  5534  0EBE  0008               	return
  5535  0EBF                     __end_of_glcd_SelectPage1:	
  5536                           
  5537                           	psect	text20
  5538  0EAF                     __ptext20:	
  5539 ;; *************** function _glcd_SelectPage0 *****************
  5540 ;; Defined at:
  5541 ;;		line 1073 in file "../00-libfiles/glcd.c"
  5542 ;; Parameters:    Size  Location     Type
  5543 ;;		None
  5544 ;; Auto vars:     Size  Location     Type
  5545 ;;		None
  5546 ;; Return value:  Size  Location     Type
  5547 ;;                  1    wreg      void 
  5548 ;; Registers used:
  5549 ;;		wreg, status,2, status,0
  5550 ;; Tracked objects:
  5551 ;;		On entry : 0/0
  5552 ;;		On exit  : 0/0
  5553 ;;		Unchanged: 0/0
  5554 ;; Data sizes:     COMMON   BANK0   BANK1   BANK3   BANK2
  5555 ;;      Params:         0       0       0       0       0
  5556 ;;      Locals:         0       0       0       0       0
  5557 ;;      Temps:          1       0       0       0       0
  5558 ;;      Totals:         1       0       0       0       0
  5559 ;;Total ram usage:        1 bytes
  5560 ;; Hardware stack levels used:    1
  5561 ;; This function calls:
  5562 ;;		Nothing
  5563 ;; This function is called by:
  5564 ;;		_GLCD_Init
  5565 ;;		_GLCD_Clear
  5566 ;;		_GLCD_GoToPage
  5567 ;;		_GLCD_SetCursor
  5568 ;;		_GLCD_DisplayLogo
  5569 ;; This function uses a non-reentrant model
  5570 ;;
  5571                           
  5572                           
  5573                           ;psect for function _glcd_SelectPage0
  5574  0EAF                     _glcd_SelectPage0:	
  5575                           
  5576                           ;glcd.c: 1075: (((PORTD)) |= (1<<((3))));
  5577                           
  5578                           ;incstack = 0
  5579                           ; Regs used in _glcd_SelectPage0: [wreg+status,2+status,0]
  5580  0EAF  1283               	bcf	3,5	;RP0=0, select bank0
  5581  0EB0  1303               	bcf	3,6	;RP1=0, select bank0
  5582  0EB1  1588               	bsf	8,3	;volatile
  5583                           
  5584                           ;glcd.c: 1076: (((PORTD)) &= ~(1<<((4))));
  5585  0EB2  30EF               	movlw	239
  5586  0EB3  00F0               	movwf	??_glcd_SelectPage0
  5587  0EB4  0870               	movf	??_glcd_SelectPage0,w
  5588  0EB5  0588               	andwf	8,f	;volatile
  5589  0EB6  0008               	return
  5590  0EB7                     __end_of_glcd_SelectPage0:	
  5591                           
  5592                           	psect	text21
  5593  0F29                     __ptext21:	
  5594 ;; *************** function _glcd_DataWrite *****************
  5595 ;; Defined at:
  5596 ;;		line 1059 in file "../00-libfiles/glcd.c"
  5597 ;; Parameters:    Size  Location     Type
  5598 ;;  dat             1    wreg     unsigned char 
  5599 ;; Auto vars:     Size  Location     Type
  5600 ;;  dat             1    3[COMMON] unsigned char 
  5601 ;; Return value:  Size  Location     Type
  5602 ;;                  1    wreg      void 
  5603 ;; Registers used:
  5604 ;;		wreg, status,2, status,0, pclath, cstack
  5605 ;; Tracked objects:
  5606 ;;		On entry : 0/0
  5607 ;;		On exit  : 0/0
  5608 ;;		Unchanged: 0/0
  5609 ;; Data sizes:     COMMON   BANK0   BANK1   BANK3   BANK2
  5610 ;;      Params:         0       0       0       0       0
  5611 ;;      Locals:         1       0       0       0       0
  5612 ;;      Temps:          1       0       0       0       0
  5613 ;;      Totals:         2       0       0       0       0
  5614 ;;Total ram usage:        2 bytes
  5615 ;; Hardware stack levels used:    1
  5616 ;; Hardware stack levels required when called:    2
  5617 ;; This function calls:
  5618 ;;		_DELAY_us
  5619 ;;		_glcd_BusyCheck
  5620 ;; This function is called by:
  5621 ;;		_GLCD_DisplayChar
  5622 ;;		_GLCD_Clear
  5623 ;;		_GLCD_DisplayLogo
  5624 ;;		_GLCD_VerticalGraph
  5625 ;;		_GLCD_HorizontalGraph
  5626 ;; This function uses a non-reentrant model
  5627 ;;
  5628                           
  5629                           
  5630                           ;psect for function _glcd_DataWrite
  5631  0F29                     _glcd_DataWrite:	
  5632                           
  5633                           ;incstack = 0
  5634                           ; Regs used in _glcd_DataWrite: [wreg+status,2+status,0+pclath+cstack]
  5635                           ;glcd_DataWrite@dat stored from wreg
  5636  0F29  00F3               	movwf	glcd_DataWrite@dat
  5637                           
  5638                           ;glcd.c: 1061: glcd_BusyCheck();
  5639  0F2A  120A  158A  26A7  120A  158A  	fcall	_glcd_BusyCheck
  5640                           
  5641                           ;glcd.c: 1062: PORTB = dat ^ GLCD.Invertdisplay;
  5642  0F2F  1283               	bcf	3,5	;RP0=0, select bank0
  5643  0F30  1303               	bcf	3,6	;RP1=0, select bank0
  5644  0F31  086D               	movf	_GLCD+3,w
  5645  0F32  0673               	xorwf	glcd_DataWrite@dat,w
  5646  0F33  0086               	movwf	6	;volatile
  5647                           
  5648                           ;glcd.c: 1063: (((PORTD)) |= (1<<((0))));
  5649  0F34  1408               	bsf	8,0	;volatile
  5650                           
  5651                           ;glcd.c: 1064: (((PORTD)) &= ~(1<<((1))));
  5652  0F35  30FD               	movlw	253
  5653  0F36  00F2               	movwf	??_glcd_DataWrite
  5654  0F37  0872               	movf	??_glcd_DataWrite,w
  5655  0F38  0588               	andwf	8,f	;volatile
  5656                           
  5657                           ;glcd.c: 1065: (((PORTD)) |= (1<<((2))));
  5658  0F39  1508               	bsf	8,2	;volatile
  5659                           
  5660                           ;glcd.c: 1066: DELAY_us(1);
  5661  0F3A  3001               	movlw	1
  5662  0F3B  00F0               	movwf	DELAY_us@us_count
  5663  0F3C  3000               	movlw	0
  5664  0F3D  00F1               	movwf	DELAY_us@us_count+1
  5665  0F3E  120A  158A  26BF   	fcall	_DELAY_us
  5666                           
  5667                           ;glcd.c: 1067: (((PORTD)) &= ~(1<<((2))));
  5668  0F41  30FB               	movlw	251
  5669  0F42  00F2               	movwf	??_glcd_DataWrite
  5670  0F43  0872               	movf	??_glcd_DataWrite,w
  5671  0F44  1283               	bcf	3,5	;RP0=0, select bank0
  5672  0F45  1303               	bcf	3,6	;RP1=0, select bank0
  5673  0F46  0588               	andwf	8,f	;volatile
  5674  0F47  0008               	return
  5675  0F48                     __end_of_glcd_DataWrite:	
  5676                           
  5677                           	psect	text22
  5678  0F48                     __ptext22:	
  5679 ;; *************** function _glcd_CmdWrite *****************
  5680 ;; Defined at:
  5681 ;;		line 1045 in file "../00-libfiles/glcd.c"
  5682 ;; Parameters:    Size  Location     Type
  5683 ;;  cmd             1    wreg     unsigned char 
  5684 ;; Auto vars:     Size  Location     Type
  5685 ;;  cmd             1    3[COMMON] unsigned char 
  5686 ;; Return value:  Size  Location     Type
  5687 ;;                  1    wreg      void 
  5688 ;; Registers used:
  5689 ;;		wreg, status,2, status,0, pclath, cstack
  5690 ;; Tracked objects:
  5691 ;;		On entry : 0/0
  5692 ;;		On exit  : 0/0
  5693 ;;		Unchanged: 0/0
  5694 ;; Data sizes:     COMMON   BANK0   BANK1   BANK3   BANK2
  5695 ;;      Params:         0       0       0       0       0
  5696 ;;      Locals:         1       0       0       0       0
  5697 ;;      Temps:          1       0       0       0       0
  5698 ;;      Totals:         2       0       0       0       0
  5699 ;;Total ram usage:        2 bytes
  5700 ;; Hardware stack levels used:    1
  5701 ;; Hardware stack levels required when called:    2
  5702 ;; This function calls:
  5703 ;;		_DELAY_us
  5704 ;;		_glcd_BusyCheck
  5705 ;; This function is called by:
  5706 ;;		_GLCD_Init
  5707 ;;		_GLCD_Clear
  5708 ;;		_GLCD_GoToPage
  5709 ;;		_GLCD_SetCursor
  5710 ;;		_GLCD_DisplayLogo
  5711 ;; This function uses a non-reentrant model
  5712 ;;
  5713                           
  5714                           
  5715                           ;psect for function _glcd_CmdWrite
  5716  0F48                     _glcd_CmdWrite:	
  5717                           
  5718                           ;incstack = 0
  5719                           ; Regs used in _glcd_CmdWrite: [wreg+status,2+status,0+pclath+cstack]
  5720                           ;glcd_CmdWrite@cmd stored from wreg
  5721  0F48  00F3               	movwf	glcd_CmdWrite@cmd
  5722                           
  5723                           ;glcd.c: 1047: glcd_BusyCheck();
  5724  0F49  120A  158A  26A7  120A  158A  	fcall	_glcd_BusyCheck
  5725                           
  5726                           ;glcd.c: 1048: PORTB = cmd;
  5727  0F4E  0873               	movf	glcd_CmdWrite@cmd,w
  5728  0F4F  1283               	bcf	3,5	;RP0=0, select bank0
  5729  0F50  1303               	bcf	3,6	;RP1=0, select bank0
  5730  0F51  0086               	movwf	6	;volatile
  5731                           
  5732                           ;glcd.c: 1049: (((PORTD)) &= ~(1<<((0))));
  5733  0F52  30FE               	movlw	254
  5734  0F53  00F2               	movwf	??_glcd_CmdWrite
  5735  0F54  0872               	movf	??_glcd_CmdWrite,w
  5736  0F55  0588               	andwf	8,f	;volatile
  5737                           
  5738                           ;glcd.c: 1050: (((PORTD)) &= ~(1<<((1))));
  5739  0F56  30FD               	movlw	253
  5740  0F57  00F2               	movwf	??_glcd_CmdWrite
  5741  0F58  0872               	movf	??_glcd_CmdWrite,w
  5742  0F59  0588               	andwf	8,f	;volatile
  5743                           
  5744                           ;glcd.c: 1051: (((PORTD)) |= (1<<((2))));
  5745  0F5A  1508               	bsf	8,2	;volatile
  5746                           
  5747                           ;glcd.c: 1052: DELAY_us(1);
  5748  0F5B  3001               	movlw	1
  5749  0F5C  00F0               	movwf	DELAY_us@us_count
  5750  0F5D  3000               	movlw	0
  5751  0F5E  00F1               	movwf	DELAY_us@us_count+1
  5752  0F5F  120A  158A  26BF   	fcall	_DELAY_us
  5753                           
  5754                           ;glcd.c: 1053: (((PORTD)) &= ~(1<<((2))));
  5755  0F62  30FB               	movlw	251
  5756  0F63  00F2               	movwf	??_glcd_CmdWrite
  5757  0F64  0872               	movf	??_glcd_CmdWrite,w
  5758  0F65  1283               	bcf	3,5	;RP0=0, select bank0
  5759  0F66  1303               	bcf	3,6	;RP1=0, select bank0
  5760  0F67  0588               	andwf	8,f	;volatile
  5761  0F68  0008               	return
  5762  0F69                     __end_of_glcd_CmdWrite:	
  5763                           
  5764                           	psect	text23
  5765  0EA7                     __ptext23:	
  5766 ;; *************** function _glcd_BusyCheck *****************
  5767 ;; Defined at:
  5768 ;;		line 1091 in file "../00-libfiles/glcd.c"
  5769 ;; Parameters:    Size  Location     Type
  5770 ;;		None
  5771 ;; Auto vars:     Size  Location     Type
  5772 ;;		None
  5773 ;; Return value:  Size  Location     Type
  5774 ;;                  1    wreg      void 
  5775 ;; Registers used:
  5776 ;;		wreg, status,2, status,0, pclath, cstack
  5777 ;; Tracked objects:
  5778 ;;		On entry : 0/0
  5779 ;;		On exit  : 0/0
  5780 ;;		Unchanged: 0/0
  5781 ;; Data sizes:     COMMON   BANK0   BANK1   BANK3   BANK2
  5782 ;;      Params:         0       0       0       0       0
  5783 ;;      Locals:         0       0       0       0       0
  5784 ;;      Temps:          0       0       0       0       0
  5785 ;;      Totals:         0       0       0       0       0
  5786 ;;Total ram usage:        0 bytes
  5787 ;; Hardware stack levels used:    1
  5788 ;; Hardware stack levels required when called:    1
  5789 ;; This function calls:
  5790 ;;		_DELAY_us
  5791 ;; This function is called by:
  5792 ;;		_glcd_CmdWrite
  5793 ;;		_glcd_DataWrite
  5794 ;; This function uses a non-reentrant model
  5795 ;;
  5796                           
  5797                           
  5798                           ;psect for function _glcd_BusyCheck
  5799  0EA7                     _glcd_BusyCheck:	
  5800                           
  5801                           ;glcd.c: 1111: DELAY_us(10);
  5802                           
  5803                           ;incstack = 0
  5804                           ; Regs used in _glcd_BusyCheck: [wreg+status,2+status,0+pclath+cstack]
  5805  0EA7  300A               	movlw	10
  5806  0EA8  00F0               	movwf	DELAY_us@us_count
  5807  0EA9  3000               	movlw	0
  5808  0EAA  00F1               	movwf	DELAY_us@us_count+1
  5809  0EAB  120A  158A  26BF   	fcall	_DELAY_us
  5810  0EAE  0008               	return
  5811  0EAF                     __end_of_glcd_BusyCheck:	
  5812                           
  5813                           	psect	text24
  5814  0F15                     __ptext24:	
  5815 ;; *************** function _DELAY_sec *****************
  5816 ;; Defined at:
  5817 ;;		line 102 in file "../00-libfiles/delay.c"
  5818 ;; Parameters:    Size  Location     Type
  5819 ;;  sec_count       2    4[COMMON] unsigned int 
  5820 ;; Auto vars:     Size  Location     Type
  5821 ;;		None
  5822 ;; Return value:  Size  Location     Type
  5823 ;;                  1    wreg      void 
  5824 ;; Registers used:
  5825 ;;		wreg, status,2, status,0, pclath, cstack
  5826 ;; Tracked objects:
  5827 ;;		On entry : 0/0
  5828 ;;		On exit  : 0/0
  5829 ;;		Unchanged: 0/0
  5830 ;; Data sizes:     COMMON   BANK0   BANK1   BANK3   BANK2
  5831 ;;      Params:         2       0       0       0       0
  5832 ;;      Locals:         0       0       0       0       0
  5833 ;;      Temps:          0       0       0       0       0
  5834 ;;      Totals:         2       0       0       0       0
  5835 ;;Total ram usage:        2 bytes
  5836 ;; Hardware stack levels used:    1
  5837 ;; Hardware stack levels required when called:    2
  5838 ;; This function calls:
  5839 ;;		_DELAY_ms
  5840 ;; This function is called by:
  5841 ;;		_main
  5842 ;; This function uses a non-reentrant model
  5843 ;;
  5844                           
  5845                           
  5846                           ;psect for function _DELAY_sec
  5847  0F15                     _DELAY_sec:	
  5848  0F15                     l1819:	
  5849                           ;delay.c: 104: while (sec_count != 0) {
  5850                           
  5851                           ;incstack = 0
  5852                           ; Regs used in _DELAY_sec: [wreg+status,2+status,0+pclath+cstack]
  5853                           
  5854  0F15  0874               	movf	DELAY_sec@sec_count,w
  5855  0F16  0475               	iorwf	DELAY_sec@sec_count+1,w
  5856  0F17  1903               	btfsc	3,2
  5857  0F18  0008               	return
  5858                           
  5859                           ;delay.c: 105: DELAY_ms(1000);
  5860  0F19  30E8               	movlw	232
  5861  0F1A  00F2               	movwf	DELAY_ms@ms_count
  5862  0F1B  3003               	movlw	3
  5863  0F1C  00F3               	movwf	DELAY_ms@ms_count+1
  5864  0F1D  120A  158A  2701  120A  158A  	fcall	_DELAY_ms
  5865                           
  5866                           ;delay.c: 106: sec_count--;
  5867  0F22  3001               	movlw	1
  5868  0F23  02F4               	subwf	DELAY_sec@sec_count,f
  5869  0F24  3000               	movlw	0
  5870  0F25  1C03               	skipc
  5871  0F26  03F5               	decf	DELAY_sec@sec_count+1,f
  5872  0F27  02F5               	subwf	DELAY_sec@sec_count+1,f
  5873  0F28  2F15               	goto	l1819
  5874  0F29                     __end_of_DELAY_sec:	
  5875                           
  5876                           	psect	text25
  5877  0F01                     __ptext25:	
  5878 ;; *************** function _DELAY_ms *****************
  5879 ;; Defined at:
  5880 ;;		line 75 in file "../00-libfiles/delay.c"
  5881 ;; Parameters:    Size  Location     Type
  5882 ;;  ms_count        2    2[COMMON] unsigned int 
  5883 ;; Auto vars:     Size  Location     Type
  5884 ;;		None
  5885 ;; Return value:  Size  Location     Type
  5886 ;;                  1    wreg      void 
  5887 ;; Registers used:
  5888 ;;		wreg, status,2, status,0, pclath, cstack
  5889 ;; Tracked objects:
  5890 ;;		On entry : 0/0
  5891 ;;		On exit  : 0/0
  5892 ;;		Unchanged: 0/0
  5893 ;; Data sizes:     COMMON   BANK0   BANK1   BANK3   BANK2
  5894 ;;      Params:         2       0       0       0       0
  5895 ;;      Locals:         0       0       0       0       0
  5896 ;;      Temps:          0       0       0       0       0
  5897 ;;      Totals:         2       0       0       0       0
  5898 ;;Total ram usage:        2 bytes
  5899 ;; Hardware stack levels used:    1
  5900 ;; Hardware stack levels required when called:    1
  5901 ;; This function calls:
  5902 ;;		_DELAY_us
  5903 ;; This function is called by:
  5904 ;;		_DELAY_sec
  5905 ;;		_GLCD_Init
  5906 ;; This function uses a non-reentrant model
  5907 ;;
  5908                           
  5909                           
  5910                           ;psect for function _DELAY_ms
  5911  0F01                     _DELAY_ms:	
  5912  0F01                     l1659:	
  5913                           ;delay.c: 77: while (ms_count != 0)
  5914                           
  5915                           ;incstack = 0
  5916                           ; Regs used in _DELAY_ms: [wreg+status,2+status,0+pclath+cstack]
  5917                           
  5918  0F01  0872               	movf	DELAY_ms@ms_count,w
  5919  0F02  0473               	iorwf	DELAY_ms@ms_count+1,w
  5920  0F03  1903               	btfsc	3,2
  5921  0F04  0008               	return
  5922                           
  5923                           ;delay.c: 78: {
  5924                           ;delay.c: 79: DELAY_us(300u);
  5925  0F05  302C               	movlw	44
  5926  0F06  00F0               	movwf	DELAY_us@us_count
  5927  0F07  3001               	movlw	1
  5928  0F08  00F1               	movwf	DELAY_us@us_count+1
  5929  0F09  120A  158A  26BF  120A  158A  	fcall	_DELAY_us
  5930                           
  5931                           ;delay.c: 80: ms_count--;
  5932  0F0E  3001               	movlw	1
  5933  0F0F  02F2               	subwf	DELAY_ms@ms_count,f
  5934  0F10  3000               	movlw	0
  5935  0F11  1C03               	skipc
  5936  0F12  03F3               	decf	DELAY_ms@ms_count+1,f
  5937  0F13  02F3               	subwf	DELAY_ms@ms_count+1,f
  5938  0F14  2F01               	goto	l1659
  5939  0F15                     __end_of_DELAY_ms:	
  5940                           
  5941                           	psect	text26
  5942  0EBF                     __ptext26:	
  5943 ;; *************** function _DELAY_us *****************
  5944 ;; Defined at:
  5945 ;;		line 56 in file "../00-libfiles/delay.c"
  5946 ;; Parameters:    Size  Location     Type
  5947 ;;  us_count        2    0[COMMON] unsigned int 
  5948 ;; Auto vars:     Size  Location     Type
  5949 ;;		None
  5950 ;; Return value:  Size  Location     Type
  5951 ;;                  1    wreg      void 
  5952 ;; Registers used:
  5953 ;;		wreg, status,2, status,0
  5954 ;; Tracked objects:
  5955 ;;		On entry : 0/0
  5956 ;;		On exit  : 0/0
  5957 ;;		Unchanged: 0/0
  5958 ;; Data sizes:     COMMON   BANK0   BANK1   BANK3   BANK2
  5959 ;;      Params:         2       0       0       0       0
  5960 ;;      Locals:         0       0       0       0       0
  5961 ;;      Temps:          0       0       0       0       0
  5962 ;;      Totals:         2       0       0       0       0
  5963 ;;Total ram usage:        2 bytes
  5964 ;; Hardware stack levels used:    1
  5965 ;; This function calls:
  5966 ;;		Nothing
  5967 ;; This function is called by:
  5968 ;;		_DELAY_ms
  5969 ;;		_glcd_CmdWrite
  5970 ;;		_glcd_DataWrite
  5971 ;;		_glcd_BusyCheck
  5972 ;; This function uses a non-reentrant model
  5973 ;;
  5974                           
  5975                           
  5976                           ;psect for function _DELAY_us
  5977  0EBF                     _DELAY_us:	
  5978  0EBF                     l1393:	
  5979                           ;delay.c: 58: while (us_count != 0)
  5980                           
  5981                           ;incstack = 0
  5982                           ; Regs used in _DELAY_us: [wreg+status,2+status,0]
  5983                           
  5984  0EBF  0870               	movf	DELAY_us@us_count,w
  5985  0EC0  0471               	iorwf	DELAY_us@us_count+1,w
  5986  0EC1  1903               	btfsc	3,2
  5987  0EC2  0008               	return
  5988                           
  5989                           ;delay.c: 59: {
  5990                           ;delay.c: 60: us_count--;
  5991  0EC3  3001               	movlw	1
  5992  0EC4  02F0               	subwf	DELAY_us@us_count,f
  5993  0EC5  3000               	movlw	0
  5994  0EC6  1C03               	skipc
  5995  0EC7  03F1               	decf	DELAY_us@us_count+1,f
  5996  0EC8  02F1               	subwf	DELAY_us@us_count+1,f
  5997  0EC9  2EBF               	goto	l1393
  5998  0ECA                     __end_of_DELAY_us:	
  5999  007E                     btemp	set	126	;btemp
  6000  007E                     wtemp	set	126
  6001  007E                     wtemp0	set	126
  6002  0080                     wtemp1	set	128
  6003  0082                     wtemp2	set	130
  6004  0084                     wtemp3	set	132
  6005  0086                     wtemp4	set	134
  6006  0088                     wtemp5	set	136
  6007  007F                     wtemp6	set	127
  6008  007E                     ttemp	set	126
  6009  007E                     ttemp0	set	126
  6010  0081                     ttemp1	set	129
  6011  0084                     ttemp2	set	132
  6012  0087                     ttemp3	set	135
  6013  007F                     ttemp4	set	127
  6014  007E                     ltemp	set	126
  6015  007E                     ltemp0	set	126
  6016  0082                     ltemp1	set	130
  6017  0086                     ltemp2	set	134
  6018  0080                     ltemp3	set	128


Data Sizes:
    Strings     33
    Constant    1499
    Data        0
    BSS         4
    Persistent  0
    Stack       0

Auto Spaces:
    Space          Size  Autos    Used
    COMMON           14     14      14
    BANK0            80     74      78
    BANK1            80      0       0
    BANK3            96      0       0
    BANK2            96      0       0

Pointer List with Targets:

    GLCD_DisplayLogo@ptr_Logo	PTR const unsigned char  size(2) Largest target is 1024
		 -> LogoBitMap(CODE[1024]), 

    GLCD_Printf@str	PTR unsigned char  size(1) Largest target is 0

    GLCD_Printf@argList	PTR const unsigned char  size(2) Largest target is 33
		 -> STR_1(CODE[33]), 

    GLCD_Printf@ptr	PTR const unsigned char  size(2) Largest target is 33
		 -> STR_1(CODE[33]), 

    GLCD_Printf@argp	PTR void [1] size(1) Largest target is 1
		 -> ?_GLCD_Printf(BANK0[1]), 

    GLCD_DisplayString@ptr	PTR unsigned char  size(1) Largest target is 0


Critical Paths under _main in COMMON

    _GLCD_DisplayString->_GLCD_DisplayChar
    _GLCD_Init->_GLCD_Clear
    _GLCD_Clear->_GLCD_GoToLine
    _GLCD_GoToLine->_GLCD_GoToPage
    _GLCD_SetCursor->___awdiv
    _GLCD_DisplayNumber->___lldiv
    ___bmul->___lldiv
    _GLCD_DisplayChar->_GLCD_GoToNextLine
    _GLCD_GoToNextLine->_GLCD_GoToPage
    _GLCD_GoToPage->_glcd_CmdWrite
    _GLCD_DisplayLogo->_glcd_CmdWrite
    _GLCD_DisplayLogo->_glcd_DataWrite
    _glcd_DataWrite->_DELAY_us
    _glcd_CmdWrite->_DELAY_us
    _glcd_BusyCheck->_DELAY_us
    _DELAY_sec->_DELAY_ms
    _DELAY_ms->_DELAY_us

Critical Paths under _main in BANK0

    _main->_GLCD_Printf
    _GLCD_VerticalGraph->_GLCD_DisplayNumber
    _GLCD_Printf->_GLCD_DisplayNumber
    _GLCD_DisplayString->_GLCD_DisplayChar
    _GLCD_HorizontalGraph->_GLCD_DisplayNumber
    _GLCD_DisplayNumber->_GLCD_DisplayChar

Critical Paths under _main in BANK1

    None.

Critical Paths under _main in BANK3

    None.

Critical Paths under _main in BANK2

    None.

Call Graph Tables:

 ---------------------------------------------------------------------------------
 (Depth) Function   	        Calls       Base Space   Used Autos Params    Refs
 ---------------------------------------------------------------------------------
 (0) _main                                                 3     3      0   32565
                                             71 BANK0      3     3      0
                          _DELAY_sec
                         _GLCD_Clear
                   _GLCD_DisplayLogo
               _GLCD_HorizontalGraph
                          _GLCD_Init
                        _GLCD_Printf
                 _GLCD_VerticalGraph
 ---------------------------------------------------------------------------------
 (1) _GLCD_VerticalGraph                                  13    12      1    8082
                                             40 BANK0     13    12      1
                 _GLCD_DisplayNumber
                     _GLCD_SetCursor
                            ___awdiv
                     _glcd_DataWrite
 ---------------------------------------------------------------------------------
 (1) _GLCD_Printf                                         31    20     11    9792
                                             40 BANK0     31    20     11
                   _GLCD_DisplayChar
                 _GLCD_DisplayNumber
                 _GLCD_DisplayString
                             ___bmul
 ---------------------------------------------------------------------------------
 (2) _GLCD_DisplayString                                   2     2      0    2080
                                             10 COMMON     2     2      0
                   _GLCD_DisplayChar
 ---------------------------------------------------------------------------------
 (1) _GLCD_Init                                            1     1      0    3202
                                             11 COMMON     1     1      0
                           _DELAY_ms
                         _GLCD_Clear
                      _GLCD_GoToPage
                      _glcd_CmdWrite
                   _glcd_SelectPage0
                   _glcd_SelectPage1
 ---------------------------------------------------------------------------------
 (2) _GLCD_Clear                                           3     3      0    1766
                                              8 COMMON     3     3      0
                      _GLCD_GoToLine
                      _glcd_CmdWrite
                     _glcd_DataWrite
                   _glcd_SelectPage0
                   _glcd_SelectPage1
 ---------------------------------------------------------------------------------
 (3) _GLCD_GoToLine                                        2     2      0     624
                                              6 COMMON     2     2      0
                      _GLCD_GoToPage
 ---------------------------------------------------------------------------------
 (1) _GLCD_HorizontalGraph                                 9     8      1    7839
                                             40 BANK0      9     8      1
                 _GLCD_DisplayNumber
                      _GLCD_GoToPage
                     _GLCD_SetCursor
                     _glcd_DataWrite
 ---------------------------------------------------------------------------------
 (2) _GLCD_SetCursor                                       6     5      1    1902
                                              9 COMMON     4     3      1
                                              0 BANK0      2     2      0
                            ___awdiv
                            ___awmod
                      _glcd_CmdWrite
                   _glcd_SelectPage0
                   _glcd_SelectPage1
 ---------------------------------------------------------------------------------
 (3) ___awmod                                              7     3      4     402
                                              0 COMMON     7     3      4
 ---------------------------------------------------------------------------------
 (2) ___awdiv                                              9     5      4     618
                                              0 COMMON     9     5      4
 ---------------------------------------------------------------------------------
 (2) _GLCD_DisplayNumber                                  31    26      5    4362
                                              9 BANK0     31    26      5
                   _GLCD_DisplayChar
                             ___bmul
                            ___lldiv
 ---------------------------------------------------------------------------------
 (3) ___lldiv                                             14     6      8     374
                                              0 COMMON    14     6      8
 ---------------------------------------------------------------------------------
 (3) ___bmul                                               4     3      1     198
                                              0 BANK0      4     3      1
                            ___lldiv (ARG)
 ---------------------------------------------------------------------------------
 (3) _GLCD_DisplayChar                                    12    12      0    2008
                                              7 COMMON     3     3      0
                                              0 BANK0      9     9      0
                  _GLCD_GoToNextLine
                      _GLCD_GoToPage
                             ___wmul
                     _glcd_DataWrite
 ---------------------------------------------------------------------------------
 (4) ___wmul                                               6     2      4     198
                                              0 COMMON     6     2      4
 ---------------------------------------------------------------------------------
 (4) _GLCD_GoToNextLine                                    1     1      0     580
                                              6 COMMON     1     1      0
                      _GLCD_GoToPage
 ---------------------------------------------------------------------------------
 (4) _GLCD_GoToPage                                        2     2      0     580
                                              4 COMMON     2     2      0
                      _glcd_CmdWrite
                   _glcd_SelectPage0
                   _glcd_SelectPage1
 ---------------------------------------------------------------------------------
 (1) _GLCD_DisplayLogo                                     5     3      2    1218
                                              4 COMMON     5     3      2
                      _glcd_CmdWrite
                     _glcd_DataWrite
                   _glcd_SelectPage0
                   _glcd_SelectPage1
 ---------------------------------------------------------------------------------
 (3) _glcd_SelectPage1                                     1     1      0       0
                                              0 COMMON     1     1      0
 ---------------------------------------------------------------------------------
 (3) _glcd_SelectPage0                                     1     1      0       0
                                              0 COMMON     1     1      0
 ---------------------------------------------------------------------------------
 (2) _glcd_DataWrite                                       2     2      0     492
                                              2 COMMON     2     2      0
                           _DELAY_us
                     _glcd_BusyCheck
 ---------------------------------------------------------------------------------
 (3) _glcd_CmdWrite                                        2     2      0     492
                                              2 COMMON     2     2      0
                           _DELAY_us
                     _glcd_BusyCheck
 ---------------------------------------------------------------------------------
 (3) _glcd_BusyCheck                                       0     0      0     235
                           _DELAY_us
 ---------------------------------------------------------------------------------
 (1) _DELAY_sec                                            2     0      2     599
                                              4 COMMON     2     0      2
                           _DELAY_ms
 ---------------------------------------------------------------------------------
 (2) _DELAY_ms                                             2     0      2     364
                                              2 COMMON     2     0      2
                           _DELAY_us
 ---------------------------------------------------------------------------------
 (4) _DELAY_us                                             2     0      2     235
                                              0 COMMON     2     0      2
 ---------------------------------------------------------------------------------
 Estimated maximum stack depth 4
 ---------------------------------------------------------------------------------

 Call Graph Graphs:

 _main (ROOT)
   _DELAY_sec
     _DELAY_ms
       _DELAY_us
   _GLCD_Clear
     _GLCD_GoToLine
       _GLCD_GoToPage
         _glcd_CmdWrite
           _DELAY_us
           _glcd_BusyCheck
             _DELAY_us
         _glcd_SelectPage0
         _glcd_SelectPage1
     _glcd_CmdWrite
       _DELAY_us
       _glcd_BusyCheck
         _DELAY_us
     _glcd_DataWrite
       _DELAY_us
       _glcd_BusyCheck
         _DELAY_us
     _glcd_SelectPage0
     _glcd_SelectPage1
   _GLCD_DisplayLogo
     _glcd_CmdWrite
       _DELAY_us
       _glcd_BusyCheck
         _DELAY_us
     _glcd_DataWrite
       _DELAY_us
       _glcd_BusyCheck
         _DELAY_us
     _glcd_SelectPage0
     _glcd_SelectPage1
   _GLCD_HorizontalGraph
     _GLCD_DisplayNumber
       _GLCD_DisplayChar
         _GLCD_GoToNextLine
           _GLCD_GoToPage
             _glcd_CmdWrite
               _DELAY_us
               _glcd_BusyCheck
                 _DELAY_us
             _glcd_SelectPage0
             _glcd_SelectPage1
         _GLCD_GoToPage
           _glcd_CmdWrite
             _DELAY_us
             _glcd_BusyCheck
               _DELAY_us
           _glcd_SelectPage0
           _glcd_SelectPage1
         ___wmul
         _glcd_DataWrite
           _DELAY_us
           _glcd_BusyCheck
             _DELAY_us
       ___bmul
         ___lldiv (ARG)
       ___lldiv
     _GLCD_GoToPage
       _glcd_CmdWrite
         _DELAY_us
         _glcd_BusyCheck
           _DELAY_us
       _glcd_SelectPage0
       _glcd_SelectPage1
     _GLCD_SetCursor
       ___awdiv
       ___awmod
       _glcd_CmdWrite
         _DELAY_us
         _glcd_BusyCheck
           _DELAY_us
       _glcd_SelectPage0
       _glcd_SelectPage1
     _glcd_DataWrite
       _DELAY_us
       _glcd_BusyCheck
         _DELAY_us
   _GLCD_Init
     _DELAY_ms
       _DELAY_us
     _GLCD_Clear
       _GLCD_GoToLine
         _GLCD_GoToPage
           _glcd_CmdWrite
             _DELAY_us
             _glcd_BusyCheck
               _DELAY_us
           _glcd_SelectPage0
           _glcd_SelectPage1
       _glcd_CmdWrite
         _DELAY_us
         _glcd_BusyCheck
           _DELAY_us
       _glcd_DataWrite
         _DELAY_us
         _glcd_BusyCheck
           _DELAY_us
       _glcd_SelectPage0
       _glcd_SelectPage1
     _GLCD_GoToPage
       _glcd_CmdWrite
         _DELAY_us
         _glcd_BusyCheck
           _DELAY_us
       _glcd_SelectPage0
       _glcd_SelectPage1
     _glcd_CmdWrite
       _DELAY_us
       _glcd_BusyCheck
         _DELAY_us
     _glcd_SelectPage0
     _glcd_SelectPage1
   _GLCD_Printf
     _GLCD_DisplayChar
       _GLCD_GoToNextLine
         _GLCD_GoToPage
           _glcd_CmdWrite
             _DELAY_us
             _glcd_BusyCheck
               _DELAY_us
           _glcd_SelectPage0
           _glcd_SelectPage1
       _GLCD_GoToPage
         _glcd_CmdWrite
           _DELAY_us
           _glcd_BusyCheck
             _DELAY_us
         _glcd_SelectPage0
         _glcd_SelectPage1
       ___wmul
       _glcd_DataWrite
         _DELAY_us
         _glcd_BusyCheck
           _DELAY_us
     _GLCD_DisplayNumber
       _GLCD_DisplayChar
         _GLCD_GoToNextLine
           _GLCD_GoToPage
             _glcd_CmdWrite
               _DELAY_us
               _glcd_BusyCheck
                 _DELAY_us
             _glcd_SelectPage0
             _glcd_SelectPage1
         _GLCD_GoToPage
           _glcd_CmdWrite
             _DELAY_us
             _glcd_BusyCheck
               _DELAY_us
           _glcd_SelectPage0
           _glcd_SelectPage1
         ___wmul
         _glcd_DataWrite
           _DELAY_us
           _glcd_BusyCheck
             _DELAY_us
       ___bmul
         ___lldiv (ARG)
       ___lldiv
     _GLCD_DisplayString
       _GLCD_DisplayChar
         _GLCD_GoToNextLine
           _GLCD_GoToPage
             _glcd_CmdWrite
               _DELAY_us
               _glcd_BusyCheck
                 _DELAY_us
             _glcd_SelectPage0
             _glcd_SelectPage1
         _GLCD_GoToPage
           _glcd_CmdWrite
             _DELAY_us
             _glcd_BusyCheck
               _DELAY_us
           _glcd_SelectPage0
           _glcd_SelectPage1
         ___wmul
         _glcd_DataWrite
           _DELAY_us
           _glcd_BusyCheck
             _DELAY_us
     ___bmul
       ___lldiv (ARG)
   _GLCD_VerticalGraph
     _GLCD_DisplayNumber
       _GLCD_DisplayChar
         _GLCD_GoToNextLine
           _GLCD_GoToPage
             _glcd_CmdWrite
               _DELAY_us
               _glcd_BusyCheck
                 _DELAY_us
             _glcd_SelectPage0
             _glcd_SelectPage1
         _GLCD_GoToPage
           _glcd_CmdWrite
             _DELAY_us
             _glcd_BusyCheck
               _DELAY_us
           _glcd_SelectPage0
           _glcd_SelectPage1
         ___wmul
         _glcd_DataWrite
           _DELAY_us
           _glcd_BusyCheck
             _DELAY_us
       ___bmul
         ___lldiv (ARG)
       ___lldiv
     _GLCD_SetCursor
       ___awdiv
       ___awmod
       _glcd_CmdWrite
         _DELAY_us
         _glcd_BusyCheck
           _DELAY_us
       _glcd_SelectPage0
       _glcd_SelectPage1
     ___awdiv
     _glcd_DataWrite
       _DELAY_us
       _glcd_BusyCheck
         _DELAY_us

 Address spaces:
Name               Size   Autos  Total    Cost      Usage
BITCOMMON            E      0       0       0        0.0%
EEDATA             100      0       0       0        0.0%
NULL                 0      0       0       0        0.0%
CODE                 0      0       0       0        0.0%
COMMON               E      E       E       1      100.0%
BITSFR0              0      0       0       1        0.0%
SFR0                 0      0       0       1        0.0%
BITSFR1              0      0       0       2        0.0%
SFR1                 0      0       0       2        0.0%
STACK                0      0       0       2        0.0%
ABS                  0      0      5C       3        0.0%
BITBANK0            50      0       0       4        0.0%
BITSFR3              0      0       0       4        0.0%
SFR3                 0      0       0       4        0.0%
BANK0               50     4A      4E       5       97.5%
BITSFR2              0      0       0       5        0.0%
SFR2                 0      0       0       5        0.0%
BITBANK1            50      0       0       6        0.0%
BANK1               50      0       0       7        0.0%
BITBANK3            60      0       0       8        0.0%
BANK3               60      0       0       9        0.0%
BITBANK2            60      0       0      10        0.0%
BANK2               60      0       0      11        0.0%
DATA                 0      0      5C      12        0.0%


Microchip Technology PIC Macro Assembler V1.36 build -262312587 
Symbol Table                                                                                   Sat Sep 23 12:23:56 2017

                                ?_glcd_SelectPage0 0070                                  ?_glcd_SelectPage1 0070  
                                                pc 0002                                     ___bmul@product 0022  
                                      __CFG_CP$OFF 0000                                                 l90 02DF  
                                     ___awdiv@sign 0076                                 ??_glcd_SelectPage0 0070  
                               ??_glcd_SelectPage1 0070                                                 fsr 0004  
                              ___wmul@multiplicand 0072                                                l224 0261  
                                              l152 06AE                                 __size_of_DELAY_sec 0014  
                                              l228 0280                                                l333 0F73  
                                              l175 0051                                       __CFG_CPD$OFF 0000  
                                              fsr0 0004                                                indf 0000  
                                     ___awmod@sign 0076                                 DELAY_sec@sec_count 0074  
                                     __CFG_FOSC$HS 0000            GLCD_VerticalGraph@var_barGraphNumber_u8 004F  
                           GLCD_DisplayLogo@cursor 0077                                       __CFG_LVP$OFF 0000  
                               __size_of_GLCD_Init 0057                                               l2011 04C1  
                                             l2003 0487                                               l2023 04D6  
                                             l2031 0349                                               l2017 04C6  
                                             l2009 04BD                                               l1511 0EF8  
                                             l1427 0F99                                               l1507 0EF2  
                                             l1429 0F9E                                               l1621 01C6  
                                             l1533 012D                                               l1439 0EE9  
                                             l1455 0F6B                                               l1607 0181  
                                             l1711 05AE                                               l1703 05A2  
                                             l1551 0159                                               l1543 0135  
                                             l1527 0122                                               l1631 0024  
                                             l1393 0EBF                                               l1801 009E  
                                             l1473 02CB                                               l1617 01B9  
                                             l1609 0191                                               l1713 0543  
                                             l1545 0143                                               l1475 02CF  
                                             l1715 05B3                                               l1555 0164  
                                             l1571 0FBF                                               l1651 0067  
                                             l1485 02EC                                               l1477 02D4  
                                             l1725 05D8                                               l1719 05C3  
                                             l1559 016C                                               l1583 0FCC  
                                             l1575 0FC6                                               l1647 005F  
                                             l1639 003B                                               l1911 0764  
                                             l1903 074F                                               l1809 00BC  
                                             l1681 0522                                               l1585 0FDA  
                                             l1593 0FF3                                               l1737 020F  
                                             l1921 0790                                               l1913 0775  
                                             l1659 0F01                                               l1819 0F15  
                                             l1691 052D                                               l1675 04E4  
                                             l1683 0526                                               l1739 0214  
                                             l1667 000B                                               l1923 07A3  
                                             l1851 064A                                               l1597 0FFB  
                                             l1589 0FE8                                               l1933 07B9  
                                             l1845 061B                                               l1695 0542  
                                             l1935 07EB                                               l1929 07B7  
                                             l1857 0656                                               l1937 07F1  
                                             l1849 0645                                               l1971 0290  
                                             l1963 0276                                               l1891 0709  
                                             l1867 0671                                               l1939 05E6  
                                             l1797 0088                                               l1957 0253  
                                             l1885 06E2                                               l1869 0687  
                                             l1959 026E                                               l1879 06C3  
                                             l1897 0728                                               STR_1 0DED  
                                             _GLCD 006A                                               u1115 0F74  
                                             u1125 0F7B                                               u2005 045F  
                                             u1305 0150                                               u1155 02C9  
                                             u1315 015A                                               u1405 0FE9  
                                             u2045 04A0                                               u2054 04B6  
                                             u2055 04B4                                               u1600 0514  
                                             u1275 0138                                               u1445 0185  
                                             u1295 0144                                               u1375 0FCF  
                                             u1465 0193                                               u1475 01A8  
                                             u1395 0FE0                                               u1485 01BA  
                                             u1590 0513                                               u1584 04F8  
                                             u1585 04F5                                               u1995 0416  
                                     __CFG_WRT$OFF 0000                                GLCD_VerticalGraph@i 0054  
                              GLCD_VerticalGraph@j 0052                                               _main 033E  
                                             btemp 007E                                               ltemp 007E  
                                             start 0000                                               ttemp 007E  
                                             wtemp 007E                                   __end_of_DELAY_ms 0F15  
                                 __end_of_DELAY_us 0ECA                                  ___bmul@multiplier 0023  
                         __end_of_GLCD_DisplayChar 033E                           __end_of_GLCD_DisplayLogo 00C1  
                              __size_of_GLCD_Clear 004D                         __end_of_GLCD_DisplayNumber 05DC  
                       __end_of_GLCD_DisplayString 001F                  GLCD_Printf@v_numOfDigitsToDisp_u8 0065  
                                            ?_main 0070                                    __end_of___awdiv 0171  
                                    __CFG_WDTE$OFF 0000                                    __end_of___awmod 1000  
                       __end_of_A_GlcdFontTable_U8 09ED                                    __end_of___lldiv 01CF  
                                  ___awdiv@divisor 0070                                    ___awdiv@counter 0075  
                                            _PORTB 0006                                              _PORTD 0008  
                                            _TRISB 0086                                              _TRISD 0088  
        GLCD_HorizontalGraph@var_barGraphNumber_u8 004E                                     __CFG_BOREN$OFF 0000  
                                            pclath 000A                                              ltemp0 007E  
                                            ltemp1 0082                                              ltemp2 0086  
                                            ltemp3 0080                                              ttemp0 007E  
                                            ttemp1 0081                                              ttemp2 0084  
                                            ttemp3 0087                                              ttemp4 007F  
                                            status 0003                                              wtemp0 007E  
                                            wtemp1 0080                                              wtemp2 0082  
                                            wtemp3 0084                                              wtemp4 0086  
                                            wtemp5 0088                                              wtemp6 007F  
                                __end_of_DELAY_sec 0F29                                    __initialization 07F8  
                            GLCD_DisplayString@ptr 007B                                       __end_of_main 0408  
                                __end_of_GLCD_Init 0118           GLCD_VerticalGraph@var_percentageValue_u8 0048  
                   GLCD_DisplayNumber@v_number_u32 0029                                         _LogoBitMap 09ED  
                       __end_of_GLCD_VerticalGraph 04DB                                             ??_main 0067  
                                  GLCD_Printf@argp 0066                           GLCD_DisplayLogo@ptr_Logo 0074  
                             __size_of_GLCD_Printf 021C                                   ___awdiv@dividend 0072  
                                   __CFG_PWRTE$OFF 0000                                             ___bmul 0EEE  
                                           ___wmul 0F69                                          ??___awdiv 0074  
                                        ??___awmod 0074                                          ??___lldiv 0078  
                                 ___awdiv@quotient 0077                                    ___awmod@divisor 0070  
                                  ___awmod@counter 0075                                   DELAY_ms@ms_count 0072  
                               GLCD_Printf@argList 0048                                          ?_DELAY_ms 0072  
                                        ?_DELAY_us 0070                                       ??_GLCD_Clear 0078  
                     GLCD_VerticalGraph@lineNumber 0051                            __end_of__initialization 07FC  
                            __end_of_GLCD_GoToPage 0FB5                              __end_of_GLCD_GoToLine 0EDB  
                                glcd_DataWrite@dat 0073                                ___bmul@multiplicand 0020  
                     __end_of_GLCD_HorizontalGraph 02B2                                     __pcstackCOMMON 0070  
                          GLCD_GoToPage@pageNumber 0075                                 __end_of_GLCD_Clear 006C  
       GLCD_HorizontalGraph@var_percentageValue_u8 0048                            __size_of_GLCD_SetCursor 0062  
                                       ??_DELAY_ms 0074                                         ??_DELAY_us 0072  
                        __size_of_glcd_SelectPage0 0008                          __size_of_glcd_SelectPage1 0008  
                            __end_of_glcd_CmdWrite 0F69                                         __pbssBANK0 006A  
                                       __pmaintext 033E                                            ?___bmul 0020  
                                          ?___wmul 0070                                  ?_GLCD_DisplayChar 0070  
                                ?_GLCD_DisplayLogo 0074                                 ??_GLCD_DisplayChar 0020  
                               ??_GLCD_DisplayLogo 0076                            __size_of_glcd_DataWrite 001F  
                               GLCD_DisplayChar@ch 0079                                 _GLCD_DisplayNumber 04DB  
                                 DELAY_us@us_count 0070                                 _GLCD_DisplayString 000A  
                                       __stringtab 0800                                 _A_GlcdFontTable_U8 0812  
                              ?_GLCD_DisplayNumber 0029                                ?_GLCD_DisplayString 0070  
                          __size_of_glcd_BusyCheck 0008                                          _DELAY_sec 0F15  
                                  __size_of___bmul 0013                                            ___awdiv 0118  
                                          ___awmod 0FB5                                            ___lldiv 0171  
                                  __size_of___wmul 0021                                     GLCD_Clear@line 007A  
                                          __ptext1 0408                                            __ptext2 05DC  
                                          __ptext3 000A                               ??_GLCD_DisplayNumber 002E  
                                          __ptext4 00C1                                            __ptext5 001F  
                                          __ptext6 0ECA                                            __ptext7 0231  
                                          __ptext8 01CF                                            __ptext9 0FB5  
                                        _GLCD_Init 00C1                               ??_GLCD_DisplayString 007A  
                                 ___awmod@dividend 0072                               _GLCD_HorizontalGraph 0231  
                                          main@num 0068                                 _GLCD_VerticalGraph 0408  
                             end_of_initialization 07FC                                ?_GLCD_VerticalGraph 0048  
                                  ___lldiv@divisor 0070                                    ___lldiv@counter 007D  
                                       ?_DELAY_sec 0074                                       __pstringtext 0800  
                                    ??_GLCD_Printf 0053                                         ?_GLCD_Init 0070  
                             ??_GLCD_VerticalGraph 0049                                     _GLCD_SetCursor 01CF  
                                 _glcd_SelectPage0 0EAF                                   _glcd_SelectPage1 0EB7  
                            ?_GLCD_HorizontalGraph 0048                               GLCD_DisplayLogo@line 0078  
                                __size_of_DELAY_ms 0014                                  __size_of_DELAY_us 000B  
                                   __end_of___bmul 0F01                                     __end_of___wmul 0F8A  
                           __end_of_GLCD_SetCursor 0231                                     _glcd_DataWrite 0F29  
                              start_initialization 07F8                                  _GLCD_GoToNextLine 0EDB  
                              __end_of_GLCD_Printf 07F8                                 ?_GLCD_GoToNextLine 0070  
                                   GLCD_Printf@ptr 0062                                     GLCD_Printf@str 0055  
                               __end_of_LogoBitMap 0DED                                ??_GLCD_GoToNextLine 0076  
                                   _glcd_BusyCheck 0EA7                                        ??_DELAY_sec 0076  
                                         ??___bmul 0021                                           ??___wmul 0074  
GLCD_VerticalGraph@var_lineNumberToStartDisplay_u8 004E                             __end_of_glcd_DataWrite 0F48  
                                      ??_GLCD_Init 007B                             __size_of_GLCD_GoToPage 002B  
                           __size_of_GLCD_GoToLine 0011                                    ?_GLCD_SetCursor 0079  
                        __end_of_GLCD_GoToNextLine 0EEE                             ??_GLCD_HorizontalGraph 0049  
                                        ___latbits 0002                                      __pcstackBANK0 0020  
                        __size_of_GLCD_DisplayChar 008C                          __size_of_GLCD_DisplayLogo 0055  
                           __end_of_glcd_BusyCheck 0EAF                                   GLCD_Clear@cursor 0079  
                                 glcd_CmdWrite@cmd 0073                                           ?___awdiv 0070  
                                         ?___awmod 0070                                           ?___lldiv 0070  
                                GLCD_DisplayChar@i 0078                             __size_of_glcd_CmdWrite 0021  
                                  ?_glcd_DataWrite 0070                                        _GLCD_Printf 05DC  
                                         _DELAY_ms 0F01                                           _DELAY_us 0EBF  
                     GLCD_SetCursor@CursorPosition 0079                                     ___wmul@product 0074  
                                    _GLCD_GoToPage 0F8A                                      _GLCD_GoToLine 0ECA  
                                  ?_glcd_BusyCheck 0070                                GLCD_DisplayChar@dat 0077  
                         __end_of_glcd_SelectPage0 0EB7                           __end_of_glcd_SelectPage1 0EBF  
                                      __stringbase 0812                                  ___wmul@multiplier 0070  
                      __size_of_GLCD_DisplayNumber 0101                        __size_of_GLCD_DisplayString 0015  
                       __size_of_GLCD_GoToNextLine 0013              GLCD_HorizontalGraph@var_lineNumber_u8 004F  
                          GLCD_GoToLine@lineNumber 0077                                GLCD_DisplayNumber@a 003A  
                              GLCD_DisplayNumber@i 0047            GLCD_VerticalGraph@var_valueToDisplay_u8 0053  
                                    _glcd_CmdWrite 0F48                                     ?_GLCD_GoToPage 0070  
                                   ?_GLCD_GoToLine 0070                                      GLCD_Printf@ch 0064  
                                 __size_of___awdiv 0059                                   __size_of___awmod 004B  
                                 __size_of___lldiv 005E                                 __end_of__stringtab 0812  
                      __size_of_GLCD_VerticalGraph 00D3                           GLCD_SetCursor@pageNumber 0021  
                                         __ptext10 0118                                           __ptext11 04DB  
                                         __ptext20 0EAF                                           __ptext12 0171  
                                         __ptext21 0F29                                           __ptext13 0EEE  
                                         __ptext22 0F48                                           __ptext14 02B2  
                                         __ptext23 0EA7                                           __ptext15 0F69  
                                         __ptext24 0F15                                           __ptext16 0EDB  
                                         __ptext25 0F01                                           __ptext17 0F8A  
                                         __ptext26 0EBF                                           __ptext18 006C  
                                         __ptext19 0EB7                                         _GLCD_Clear 001F  
                                 _GLCD_DisplayChar 02B2                                   _GLCD_DisplayLogo 006C  
                                   ?_glcd_CmdWrite 0070                           GLCD_SetCursor@lineNumber 0020  
             GLCD_DisplayNumber@v_numericSystem_u8 0046                                      __size_of_main 00CA  
                                 ??_GLCD_SetCursor 007A                              GLCD_HorizontalGraph@i 0050  
                                  ??_GLCD_GoToPage 0074                                    ??_GLCD_GoToLine 0076  
                                 ___lldiv@dividend 0074                             _GLCD_DisplayNumber$148 0044  
                                        stringcode 080A                                   ??_glcd_DataWrite 0072  
        GLCD_VerticalGraph@var_barGraphPosition_u8 0050                                       ?_GLCD_Printf 0048  
                                 ___lldiv@quotient 0079                                           stringtab 0800  
                    __size_of_GLCD_HorizontalGraph 0081                                    ??_glcd_CmdWrite 0072  
      GLCD_DisplayNumber@v_numOfDigitsToDisplay_u8 002D                                        ?_GLCD_Clear 0070  
                                 ??_glcd_BusyCheck 0072                               GLCD_Printf@v_num_s16 005A  
                             GLCD_Printf@v_num_s32 0056                               GLCD_Printf@v_num_u16 0060  
                             GLCD_Printf@v_num_u32 005C  
